
kernel:     file format elf32-i386


Disassembly of section .text:

00100000 <brelse>:
}

// Release the buffer buf.
void
brelse(struct buf *b)
{
  100000:	55                   	push   %ebp
  100001:	89 e5                	mov    %esp,%ebp
  100003:	53                   	push   %ebx
  100004:	83 ec 04             	sub    $0x4,%esp
  100007:	8b 5d 08             	mov    0x8(%ebp),%ebx
  if((b->flags & B_BUSY) == 0)
  10000a:	f6 03 01             	testb  $0x1,(%ebx)
  10000d:	74 58                	je     100067 <brelse+0x67>
    panic("brelse");

  acquire(&buf_table_lock);
  10000f:	c7 04 24 80 98 10 00 	movl   $0x109880,(%esp)
  100016:	e8 25 41 00 00       	call   104140 <acquire>

  b->next->prev = b->prev;
  10001b:	8b 53 10             	mov    0x10(%ebx),%edx
  10001e:	8b 43 0c             	mov    0xc(%ebx),%eax
  b->next = bufhead.next;
  b->prev = &bufhead;
  bufhead.next->prev = b;
  bufhead.next = b;

  b->flags &= ~B_BUSY;
  100021:	83 23 fe             	andl   $0xfffffffe,(%ebx)
  if((b->flags & B_BUSY) == 0)
    panic("brelse");

  acquire(&buf_table_lock);

  b->next->prev = b->prev;
  100024:	89 42 0c             	mov    %eax,0xc(%edx)
  b->prev->next = b->next;
  100027:	8b 43 0c             	mov    0xc(%ebx),%eax
  b->next = bufhead.next;
  b->prev = &bufhead;
  10002a:	c7 43 0c 60 81 10 00 	movl   $0x108160,0xc(%ebx)
    panic("brelse");

  acquire(&buf_table_lock);

  b->next->prev = b->prev;
  b->prev->next = b->next;
  100031:	89 50 10             	mov    %edx,0x10(%eax)
  b->next = bufhead.next;
  100034:	a1 70 81 10 00       	mov    0x108170,%eax
  100039:	89 43 10             	mov    %eax,0x10(%ebx)
  b->prev = &bufhead;
  bufhead.next->prev = b;
  10003c:	a1 70 81 10 00       	mov    0x108170,%eax
  bufhead.next = b;
  100041:	89 1d 70 81 10 00    	mov    %ebx,0x108170

  b->next->prev = b->prev;
  b->prev->next = b->next;
  b->next = bufhead.next;
  b->prev = &bufhead;
  bufhead.next->prev = b;
  100047:	89 58 0c             	mov    %ebx,0xc(%eax)
  bufhead.next = b;

  b->flags &= ~B_BUSY;
  wakeup(buf);
  10004a:	c7 04 24 80 83 10 00 	movl   $0x108380,(%esp)
  100051:	e8 ea 33 00 00       	call   103440 <wakeup>

  release(&buf_table_lock);
  100056:	c7 45 08 80 98 10 00 	movl   $0x109880,0x8(%ebp)
}
  10005d:	83 c4 04             	add    $0x4,%esp
  100060:	5b                   	pop    %ebx
  100061:	5d                   	pop    %ebp
  bufhead.next = b;

  b->flags &= ~B_BUSY;
  wakeup(buf);

  release(&buf_table_lock);
  100062:	e9 99 40 00 00       	jmp    104100 <release>
// Release the buffer buf.
void
brelse(struct buf *b)
{
  if((b->flags & B_BUSY) == 0)
    panic("brelse");
  100067:	c7 04 24 a0 61 10 00 	movl   $0x1061a0,(%esp)
  10006e:	e8 fd 08 00 00       	call   100970 <panic>
  100073:	8d b6 00 00 00 00    	lea    0x0(%esi),%esi
  100079:	8d bc 27 00 00 00 00 	lea    0x0(%edi,%eiz,1),%edi

00100080 <bwrite>:
}

// Write buf's contents to disk.  Must be locked.
void
bwrite(struct buf *b)
{
  100080:	55                   	push   %ebp
  100081:	89 e5                	mov    %esp,%ebp
  100083:	83 ec 08             	sub    $0x8,%esp
  100086:	8b 55 08             	mov    0x8(%ebp),%edx
  if((b->flags & B_BUSY) == 0)
  100089:	8b 02                	mov    (%edx),%eax
  10008b:	a8 01                	test   $0x1,%al
  10008d:	74 0e                	je     10009d <bwrite+0x1d>
    panic("bwrite");
  b->flags |= B_DIRTY;
  10008f:	83 c8 04             	or     $0x4,%eax
  100092:	89 02                	mov    %eax,(%edx)
  ide_rw(b);
  100094:	89 55 08             	mov    %edx,0x8(%ebp)
}
  100097:	c9                   	leave  
bwrite(struct buf *b)
{
  if((b->flags & B_BUSY) == 0)
    panic("bwrite");
  b->flags |= B_DIRTY;
  ide_rw(b);
  100098:	e9 03 20 00 00       	jmp    1020a0 <ide_rw>
// Write buf's contents to disk.  Must be locked.
void
bwrite(struct buf *b)
{
  if((b->flags & B_BUSY) == 0)
    panic("bwrite");
  10009d:	c7 04 24 a7 61 10 00 	movl   $0x1061a7,(%esp)
  1000a4:	e8 c7 08 00 00       	call   100970 <panic>
  1000a9:	8d b4 26 00 00 00 00 	lea    0x0(%esi,%eiz,1),%esi

001000b0 <bread>:
}

// Return a B_BUSY buf with the contents of the indicated disk sector.
struct buf*
bread(uint dev, uint sector)
{
  1000b0:	55                   	push   %ebp
  1000b1:	89 e5                	mov    %esp,%ebp
  1000b3:	57                   	push   %edi
  1000b4:	56                   	push   %esi
  1000b5:	53                   	push   %ebx
  1000b6:	83 ec 0c             	sub    $0xc,%esp
  1000b9:	8b 75 08             	mov    0x8(%ebp),%esi
  1000bc:	8b 7d 0c             	mov    0xc(%ebp),%edi
static struct buf*
bget(uint dev, uint sector)
{
  struct buf *b;

  acquire(&buf_table_lock);
  1000bf:	c7 04 24 80 98 10 00 	movl   $0x109880,(%esp)
  1000c6:	e8 75 40 00 00       	call   104140 <acquire>

 loop:
  // Try for cached block.
  for(b = bufhead.next; b != &bufhead; b = b->next){
  1000cb:	8b 1d 70 81 10 00    	mov    0x108170,%ebx
  1000d1:	81 fb 60 81 10 00    	cmp    $0x108160,%ebx
  1000d7:	75 12                	jne    1000eb <bread+0x3b>
  1000d9:	eb 45                	jmp    100120 <bread+0x70>
  1000db:	90                   	nop    
  1000dc:	8d 74 26 00          	lea    0x0(%esi,%eiz,1),%esi
  1000e0:	8b 5b 10             	mov    0x10(%ebx),%ebx
  1000e3:	81 fb 60 81 10 00    	cmp    $0x108160,%ebx
  1000e9:	74 35                	je     100120 <bread+0x70>
    if((b->flags & (B_BUSY|B_VALID)) &&
  1000eb:	8b 03                	mov    (%ebx),%eax
  1000ed:	a8 03                	test   $0x3,%al
  1000ef:	74 ef                	je     1000e0 <bread+0x30>
  1000f1:	3b 73 04             	cmp    0x4(%ebx),%esi
  1000f4:	75 ea                	jne    1000e0 <bread+0x30>
  1000f6:	3b 7b 08             	cmp    0x8(%ebx),%edi
  1000f9:	8d b4 26 00 00 00 00 	lea    0x0(%esi,%eiz,1),%esi
  100100:	75 de                	jne    1000e0 <bread+0x30>
       b->dev == dev && b->sector == sector){
      if(b->flags & B_BUSY){
  100102:	a8 01                	test   $0x1,%al
  100104:	8d 74 26 00          	lea    0x0(%esi,%eiz,1),%esi
  100108:	74 75                	je     10017f <bread+0xcf>
        sleep(buf, &buf_table_lock);
  10010a:	c7 44 24 04 80 98 10 	movl   $0x109880,0x4(%esp)
  100111:	00 
  100112:	c7 04 24 80 83 10 00 	movl   $0x108380,(%esp)
  100119:	e8 02 36 00 00       	call   103720 <sleep>
  10011e:	eb ab                	jmp    1000cb <bread+0x1b>
      return b;
    }
  }

  // Allocate fresh block.
  for(b = bufhead.prev; b != &bufhead; b = b->prev){
  100120:	a1 6c 81 10 00       	mov    0x10816c,%eax
  100125:	3d 60 81 10 00       	cmp    $0x108160,%eax
  10012a:	75 0e                	jne    10013a <bread+0x8a>
  10012c:	eb 45                	jmp    100173 <bread+0xc3>
  10012e:	66 90                	xchg   %ax,%ax
  100130:	8b 40 0c             	mov    0xc(%eax),%eax
  100133:	3d 60 81 10 00       	cmp    $0x108160,%eax
  100138:	74 39                	je     100173 <bread+0xc3>
    if((b->flags & B_BUSY) == 0){
  10013a:	f6 00 01             	testb  $0x1,(%eax)
  10013d:	8d 76 00             	lea    0x0(%esi),%esi
  100140:	75 ee                	jne    100130 <bread+0x80>
      b->flags = B_BUSY;
  100142:	c7 00 01 00 00 00    	movl   $0x1,(%eax)
    }
  }

  // Allocate fresh block.
  for(b = bufhead.prev; b != &bufhead; b = b->prev){
    if((b->flags & B_BUSY) == 0){
  100148:	89 c3                	mov    %eax,%ebx
      b->flags = B_BUSY;
      b->dev = dev;
  10014a:	89 70 04             	mov    %esi,0x4(%eax)
      b->sector = sector;
  10014d:	89 78 08             	mov    %edi,0x8(%eax)
      release(&buf_table_lock);
  100150:	c7 04 24 80 98 10 00 	movl   $0x109880,(%esp)
  100157:	e8 a4 3f 00 00       	call   104100 <release>
bread(uint dev, uint sector)
{
  struct buf *b;

  b = bget(dev, sector);
  if(!(b->flags & B_VALID))
  10015c:	f6 03 02             	testb  $0x2,(%ebx)
  10015f:	75 08                	jne    100169 <bread+0xb9>
    ide_rw(b);
  100161:	89 1c 24             	mov    %ebx,(%esp)
  100164:	e8 37 1f 00 00       	call   1020a0 <ide_rw>
  return b;
}
  100169:	83 c4 0c             	add    $0xc,%esp
  10016c:	89 d8                	mov    %ebx,%eax
  10016e:	5b                   	pop    %ebx
  10016f:	5e                   	pop    %esi
  100170:	5f                   	pop    %edi
  100171:	5d                   	pop    %ebp
  100172:	c3                   	ret    
      b->sector = sector;
      release(&buf_table_lock);
      return b;
    }
  }
  panic("bget: no buffers");
  100173:	c7 04 24 ae 61 10 00 	movl   $0x1061ae,(%esp)
  10017a:	e8 f1 07 00 00       	call   100970 <panic>
       b->dev == dev && b->sector == sector){
      if(b->flags & B_BUSY){
        sleep(buf, &buf_table_lock);
        goto loop;
      }
      b->flags |= B_BUSY;
  10017f:	83 c8 01             	or     $0x1,%eax
  100182:	89 03                	mov    %eax,(%ebx)
      release(&buf_table_lock);
  100184:	c7 04 24 80 98 10 00 	movl   $0x109880,(%esp)
  10018b:	e8 70 3f 00 00       	call   104100 <release>
  100190:	eb ca                	jmp    10015c <bread+0xac>
  100192:	8d b4 26 00 00 00 00 	lea    0x0(%esi,%eiz,1),%esi
  100199:	8d bc 27 00 00 00 00 	lea    0x0(%edi,%eiz,1),%edi

001001a0 <binit>:
// bufhead->tail is least recently used.
struct buf bufhead;

void
binit(void)
{
  1001a0:	55                   	push   %ebp
  1001a1:	89 e5                	mov    %esp,%ebp
  1001a3:	83 ec 08             	sub    $0x8,%esp
  struct buf *b;

  initlock(&buf_table_lock, "buf_table");
  1001a6:	c7 44 24 04 bf 61 10 	movl   $0x1061bf,0x4(%esp)
  1001ad:	00 
  1001ae:	c7 04 24 80 98 10 00 	movl   $0x109880,(%esp)
  1001b5:	e8 b6 3d 00 00       	call   103f70 <initlock>

  // Create linked list of buffers
  bufhead.prev = &bufhead;
  bufhead.next = &bufhead;
  for(b = buf; b < buf+NBUF; b++){
  1001ba:	b8 70 98 10 00       	mov    $0x109870,%eax
  1001bf:	3d 80 83 10 00       	cmp    $0x108380,%eax
  struct buf *b;

  initlock(&buf_table_lock, "buf_table");

  // Create linked list of buffers
  bufhead.prev = &bufhead;
  1001c4:	c7 05 6c 81 10 00 60 	movl   $0x108160,0x10816c
  1001cb:	81 10 00 
  bufhead.next = &bufhead;
  1001ce:	c7 05 70 81 10 00 60 	movl   $0x108160,0x108170
  1001d5:	81 10 00 
  for(b = buf; b < buf+NBUF; b++){
  1001d8:	76 37                	jbe    100211 <binit+0x71>
  1001da:	b8 80 83 10 00       	mov    $0x108380,%eax
  1001df:	ba 60 81 10 00       	mov    $0x108160,%edx
  1001e4:	eb 06                	jmp    1001ec <binit+0x4c>
  1001e6:	66 90                	xchg   %ax,%ax
  1001e8:	89 c2                	mov    %eax,%edx
  1001ea:	89 c8                	mov    %ecx,%eax
  1001ec:	8d 88 18 02 00 00    	lea    0x218(%eax),%ecx
  1001f2:	81 f9 70 98 10 00    	cmp    $0x109870,%ecx
    b->next = bufhead.next;
    b->prev = &bufhead;
  1001f8:	c7 40 0c 60 81 10 00 	movl   $0x108160,0xc(%eax)

  // Create linked list of buffers
  bufhead.prev = &bufhead;
  bufhead.next = &bufhead;
  for(b = buf; b < buf+NBUF; b++){
    b->next = bufhead.next;
  1001ff:	89 50 10             	mov    %edx,0x10(%eax)
    b->prev = &bufhead;
    bufhead.next->prev = b;
  100202:	89 42 0c             	mov    %eax,0xc(%edx)
  initlock(&buf_table_lock, "buf_table");

  // Create linked list of buffers
  bufhead.prev = &bufhead;
  bufhead.next = &bufhead;
  for(b = buf; b < buf+NBUF; b++){
  100205:	75 e1                	jne    1001e8 <binit+0x48>
  100207:	c7 05 70 81 10 00 58 	movl   $0x109658,0x108170
  10020e:	96 10 00 
    b->next = bufhead.next;
    b->prev = &bufhead;
    bufhead.next->prev = b;
    bufhead.next = b;
  }
}
  100211:	c9                   	leave  
  100212:	c3                   	ret    
  100213:	90                   	nop    
  100214:	90                   	nop    
  100215:	90                   	nop    
  100216:	90                   	nop    
  100217:	90                   	nop    
  100218:	90                   	nop    
  100219:	90                   	nop    
  10021a:	90                   	nop    
  10021b:	90                   	nop    
  10021c:	90                   	nop    
  10021d:	90                   	nop    
  10021e:	90                   	nop    
  10021f:	90                   	nop    

00100220 <console_init>:
  return target - n;
}

void
console_init(void)
{
  100220:	55                   	push   %ebp
  100221:	89 e5                	mov    %esp,%ebp
  100223:	83 ec 08             	sub    $0x8,%esp
  initlock(&console_lock, "console");
  100226:	c7 44 24 04 c9 61 10 	movl   $0x1061c9,0x4(%esp)
  10022d:	00 
  10022e:	c7 04 24 c0 80 10 00 	movl   $0x1080c0,(%esp)
  100235:	e8 36 3d 00 00       	call   103f70 <initlock>
  initlock(&input.lock, "console input");
  10023a:	c7 44 24 04 d1 61 10 	movl   $0x1061d1,0x4(%esp)
  100241:	00 
  100242:	c7 04 24 c0 98 10 00 	movl   $0x1098c0,(%esp)
  100249:	e8 22 3d 00 00       	call   103f70 <initlock>

  devsw[CONSOLE].write = console_write;
  devsw[CONSOLE].read = console_read;
  use_console_lock = 1;

  pic_enable(IRQ_KBD);
  10024e:	c7 04 24 01 00 00 00 	movl   $0x1,(%esp)
console_init(void)
{
  initlock(&console_lock, "console");
  initlock(&input.lock, "console input");

  devsw[CONSOLE].write = console_write;
  100255:	c7 05 2c a3 10 00 a0 	movl   $0x1006a0,0x10a32c
  10025c:	06 10 00 
  devsw[CONSOLE].read = console_read;
  10025f:	c7 05 28 a3 10 00 90 	movl   $0x100290,0x10a328
  100266:	02 10 00 
  use_console_lock = 1;
  100269:	c7 05 a4 80 10 00 01 	movl   $0x1,0x1080a4
  100270:	00 00 00 

  pic_enable(IRQ_KBD);
  100273:	e8 58 2b 00 00       	call   102dd0 <pic_enable>
  ioapic_enable(IRQ_KBD, 0);
  100278:	c7 44 24 04 00 00 00 	movl   $0x0,0x4(%esp)
  10027f:	00 
  100280:	c7 04 24 01 00 00 00 	movl   $0x1,(%esp)
  100287:	e8 14 20 00 00       	call   1022a0 <ioapic_enable>
}
  10028c:	c9                   	leave  
  10028d:	c3                   	ret    
  10028e:	66 90                	xchg   %ax,%ax

00100290 <console_read>:
  release(&input.lock);
}

int
console_read(struct inode *ip, char *dst, int n)
{
  100290:	55                   	push   %ebp
  100291:	89 e5                	mov    %esp,%ebp
  100293:	57                   	push   %edi
  100294:	56                   	push   %esi
  100295:	53                   	push   %ebx
  100296:	83 ec 0c             	sub    $0xc,%esp
  100299:	8b 5d 10             	mov    0x10(%ebp),%ebx
  uint target;
  int c;

  iunlock(ip);
  10029c:	8b 45 08             	mov    0x8(%ebp),%eax
  release(&input.lock);
}

int
console_read(struct inode *ip, char *dst, int n)
{
  10029f:	8b 7d 0c             	mov    0xc(%ebp),%edi
  uint target;
  int c;

  iunlock(ip);
  1002a2:	89 04 24             	mov    %eax,(%esp)
  1002a5:	e8 d6 19 00 00       	call   101c80 <iunlock>
  target = n;
  1002aa:	89 5d f0             	mov    %ebx,-0x10(%ebp)
  acquire(&input.lock);
  1002ad:	c7 04 24 c0 98 10 00 	movl   $0x1098c0,(%esp)
  1002b4:	e8 87 3e 00 00       	call   104140 <acquire>
  while(n > 0){
  1002b9:	85 db                	test   %ebx,%ebx
  1002bb:	7f 39                	jg     1002f6 <console_read+0x66>
  1002bd:	e9 cf 00 00 00       	jmp    100391 <console_read+0x101>
  1002c2:	8d b6 00 00 00 00    	lea    0x0(%esi),%esi
  1002c8:	90                   	nop    
  1002c9:	8d b4 26 00 00 00 00 	lea    0x0(%esi,%eiz,1),%esi
    while(input.r == input.w){
      if(cp->killed){
  1002d0:	e8 eb 31 00 00       	call   1034c0 <curproc>
  1002d5:	8b 40 1c             	mov    0x1c(%eax),%eax
  1002d8:	85 c0                	test   %eax,%eax
  1002da:	8d b6 00 00 00 00    	lea    0x0(%esi),%esi
  1002e0:	75 56                	jne    100338 <console_read+0xa8>
        release(&input.lock);
        ilock(ip);
        return -1;
      }
      sleep(&input.r, &input.lock);
  1002e2:	c7 44 24 04 c0 98 10 	movl   $0x1098c0,0x4(%esp)
  1002e9:	00 
  1002ea:	c7 04 24 74 99 10 00 	movl   $0x109974,(%esp)
  1002f1:	e8 2a 34 00 00       	call   103720 <sleep>

  iunlock(ip);
  target = n;
  acquire(&input.lock);
  while(n > 0){
    while(input.r == input.w){
  1002f6:	8b 15 74 99 10 00    	mov    0x109974,%edx
  1002fc:	3b 15 78 99 10 00    	cmp    0x109978,%edx
  100302:	74 c4                	je     1002c8 <console_read+0x38>
        ilock(ip);
        return -1;
      }
      sleep(&input.r, &input.lock);
    }
    c = input.buf[input.r++ % INPUT_BUF];
  100304:	89 d0                	mov    %edx,%eax
  100306:	83 e0 7f             	and    $0x7f,%eax
  100309:	0f b6 88 f4 98 10 00 	movzbl 0x1098f4(%eax),%ecx
  100310:	8d 42 01             	lea    0x1(%edx),%eax
  100313:	a3 74 99 10 00       	mov    %eax,0x109974
  100318:	0f be f1             	movsbl %cl,%esi
    if(c == C('D')){  // EOF
  10031b:	83 fe 04             	cmp    $0x4,%esi
  10031e:	74 3e                	je     10035e <console_read+0xce>
        input.r--;
      }
      break;
    }
    *dst++ = c;
    --n;
  100320:	83 eb 01             	sub    $0x1,%ebx
    if(c == '\n')
  100323:	83 fe 0a             	cmp    $0xa,%esi
        // caller gets a 0-byte result.
        input.r--;
      }
      break;
    }
    *dst++ = c;
  100326:	88 0f                	mov    %cl,(%edi)
    --n;
    if(c == '\n')
  100328:	74 3f                	je     100369 <console_read+0xd9>
  int c;

  iunlock(ip);
  target = n;
  acquire(&input.lock);
  while(n > 0){
  10032a:	85 db                	test   %ebx,%ebx
  10032c:	7e 3b                	jle    100369 <console_read+0xd9>
        // caller gets a 0-byte result.
        input.r--;
      }
      break;
    }
    *dst++ = c;
  10032e:	83 c7 01             	add    $0x1,%edi
  100331:	eb c3                	jmp    1002f6 <console_read+0x66>
  100333:	90                   	nop    
  100334:	8d 74 26 00          	lea    0x0(%esi,%eiz,1),%esi
  target = n;
  acquire(&input.lock);
  while(n > 0){
    while(input.r == input.w){
      if(cp->killed){
        release(&input.lock);
  100338:	c7 04 24 c0 98 10 00 	movl   $0x1098c0,(%esp)
        ilock(ip);
  10033f:	bb ff ff ff ff       	mov    $0xffffffff,%ebx
  target = n;
  acquire(&input.lock);
  while(n > 0){
    while(input.r == input.w){
      if(cp->killed){
        release(&input.lock);
  100344:	e8 b7 3d 00 00       	call   104100 <release>
        ilock(ip);
  100349:	8b 45 08             	mov    0x8(%ebp),%eax
  10034c:	89 04 24             	mov    %eax,(%esp)
  10034f:	e8 ac 19 00 00       	call   101d00 <ilock>
  }
  release(&input.lock);
  ilock(ip);

  return target - n;
}
  100354:	83 c4 0c             	add    $0xc,%esp
  100357:	89 d8                	mov    %ebx,%eax
  100359:	5b                   	pop    %ebx
  10035a:	5e                   	pop    %esi
  10035b:	5f                   	pop    %edi
  10035c:	5d                   	pop    %ebp
  10035d:	c3                   	ret    
      }
      sleep(&input.r, &input.lock);
    }
    c = input.buf[input.r++ % INPUT_BUF];
    if(c == C('D')){  // EOF
      if(n < target){
  10035e:	39 5d f0             	cmp    %ebx,-0x10(%ebp)
  100361:	76 06                	jbe    100369 <console_read+0xd9>
        // Save ^D for next time, to make sure
        // caller gets a 0-byte result.
        input.r--;
  100363:	89 15 74 99 10 00    	mov    %edx,0x109974
  100369:	8b 45 f0             	mov    -0x10(%ebp),%eax
  10036c:	29 d8                	sub    %ebx,%eax
  10036e:	89 c3                	mov    %eax,%ebx
    *dst++ = c;
    --n;
    if(c == '\n')
      break;
  }
  release(&input.lock);
  100370:	c7 04 24 c0 98 10 00 	movl   $0x1098c0,(%esp)
  100377:	e8 84 3d 00 00       	call   104100 <release>
  ilock(ip);
  10037c:	8b 45 08             	mov    0x8(%ebp),%eax
  10037f:	89 04 24             	mov    %eax,(%esp)
  100382:	e8 79 19 00 00       	call   101d00 <ilock>

  return target - n;
}
  100387:	83 c4 0c             	add    $0xc,%esp
  10038a:	89 d8                	mov    %ebx,%eax
  10038c:	5b                   	pop    %ebx
  10038d:	5e                   	pop    %esi
  10038e:	5f                   	pop    %edi
  10038f:	5d                   	pop    %ebp
  100390:	c3                   	ret    

  iunlock(ip);
  target = n;
  acquire(&input.lock);
  while(n > 0){
    while(input.r == input.w){
  100391:	31 db                	xor    %ebx,%ebx
  100393:	eb db                	jmp    100370 <console_read+0xe0>
  100395:	8d 74 26 00          	lea    0x0(%esi,%eiz,1),%esi
  100399:	8d bc 27 00 00 00 00 	lea    0x0(%edi,%eiz,1),%edi

001003a0 <cons_putc>:
  crt[pos] = ' ' | 0x0700;
}

void
cons_putc(int c)
{
  1003a0:	55                   	push   %ebp
  1003a1:	89 e5                	mov    %esp,%ebp
  1003a3:	57                   	push   %edi
  1003a4:	56                   	push   %esi
  1003a5:	53                   	push   %ebx
  1003a6:	83 ec 0c             	sub    $0xc,%esp
  if(panicked){
  1003a9:	8b 15 a0 80 10 00    	mov    0x1080a0,%edx
  crt[pos] = ' ' | 0x0700;
}

void
cons_putc(int c)
{
  1003af:	8b 75 08             	mov    0x8(%ebp),%esi
  if(panicked){
  1003b2:	85 d2                	test   %edx,%edx
  1003b4:	0f 85 e6 00 00 00    	jne    1004a0 <cons_putc+0x100>
static inline uchar
inb(ushort port)
{
  uchar data;

  asm volatile("in %1,%0" : "=a" (data) : "d" (port));
  1003ba:	ba 79 03 00 00       	mov    $0x379,%edx
  1003bf:	ec                   	in     (%dx),%al
}

static inline void
cli(void)
{
  asm volatile("cli");
  1003c0:	31 db                	xor    %ebx,%ebx
static void
lpt_putc(int c)
{
  int i;

  for(i = 0; !(inb(LPTPORT+1) & 0x80) && i < 12800; i++)
  1003c2:	84 c0                	test   %al,%al
static inline uchar
inb(ushort port)
{
  uchar data;

  asm volatile("in %1,%0" : "=a" (data) : "d" (port));
  1003c4:	b9 79 03 00 00       	mov    $0x379,%ecx
  1003c9:	79 10                	jns    1003db <cons_putc+0x3b>
  1003cb:	eb 15                	jmp    1003e2 <cons_putc+0x42>
  1003cd:	8d 76 00             	lea    0x0(%esi),%esi
  1003d0:	83 c3 01             	add    $0x1,%ebx
  1003d3:	81 fb 00 32 00 00    	cmp    $0x3200,%ebx
  1003d9:	74 07                	je     1003e2 <cons_putc+0x42>
  1003db:	89 ca                	mov    %ecx,%edx
  1003dd:	ec                   	in     (%dx),%al
  1003de:	84 c0                	test   %al,%al
  1003e0:	79 ee                	jns    1003d0 <cons_putc+0x30>
    ;
  if(c == BACKSPACE)
  1003e2:	81 fe 00 01 00 00    	cmp    $0x100,%esi
  1003e8:	89 f0                	mov    %esi,%eax
  1003ea:	0f 84 b3 00 00 00    	je     1004a3 <cons_putc+0x103>
}

static inline void
outb(ushort port, uchar data)
{
  asm volatile("out %0,%1" : : "a" (data), "d" (port));
  1003f0:	ba 78 03 00 00       	mov    $0x378,%edx
  1003f5:	ee                   	out    %al,(%dx)
static inline uchar
inb(ushort port)
{
  uchar data;

  asm volatile("in %1,%0" : "=a" (data) : "d" (port));
  1003f6:	b8 0d 00 00 00       	mov    $0xd,%eax
  1003fb:	b2 7a                	mov    $0x7a,%dl
  1003fd:	ee                   	out    %al,(%dx)
  1003fe:	b8 08 00 00 00       	mov    $0x8,%eax
  100403:	ee                   	out    %al,(%dx)
  100404:	b9 d4 03 00 00       	mov    $0x3d4,%ecx
  100409:	b8 0e 00 00 00       	mov    $0xe,%eax
  10040e:	89 ca                	mov    %ecx,%edx
  100410:	ee                   	out    %al,(%dx)
  100411:	bf d5 03 00 00       	mov    $0x3d5,%edi
  100416:	89 fa                	mov    %edi,%edx
  100418:	ec                   	in     (%dx),%al
{
  int pos;
  
  // Cursor position: col + 80*row.
  outb(CRTPORT, 14);
  pos = inb(CRTPORT+1) << 8;
  100419:	0f b6 d8             	movzbl %al,%ebx
}

static inline void
outb(ushort port, uchar data)
{
  asm volatile("out %0,%1" : : "a" (data), "d" (port));
  10041c:	89 ca                	mov    %ecx,%edx
  10041e:	c1 e3 08             	shl    $0x8,%ebx
  100421:	b8 0f 00 00 00       	mov    $0xf,%eax
  100426:	ee                   	out    %al,(%dx)
static inline uchar
inb(ushort port)
{
  uchar data;

  asm volatile("in %1,%0" : "=a" (data) : "d" (port));
  100427:	89 fa                	mov    %edi,%edx
  100429:	ec                   	in     (%dx),%al
  outb(CRTPORT, 15);
  pos |= inb(CRTPORT+1);
  10042a:	0f b6 c0             	movzbl %al,%eax
  10042d:	09 c3                	or     %eax,%ebx

  if(c == '\n')
  10042f:	83 fe 0a             	cmp    $0xa,%esi
  100432:	0f 84 d9 00 00 00    	je     100511 <cons_putc+0x171>
    pos += 80 - pos%80;
  else if(c == BACKSPACE){
  100438:	81 fe 00 01 00 00    	cmp    $0x100,%esi
  10043e:	0f 84 b3 00 00 00    	je     1004f7 <cons_putc+0x157>
    if(pos > 0)
      crt[--pos] = ' ' | 0x0700;
  } else
    crt[pos++] = (c&0xff) | 0x0700;  // black on white
  100444:	89 f0                	mov    %esi,%eax
  100446:	66 25 ff 00          	and    $0xff,%ax
  10044a:	80 cc 07             	or     $0x7,%ah
  10044d:	66 89 84 1b 00 80 0b 	mov    %ax,0xb8000(%ebx,%ebx,1)
  100454:	00 
  100455:	83 c3 01             	add    $0x1,%ebx
  
  if((pos/80) >= 24){  // Scroll up.
  100458:	81 fb 7f 07 00 00    	cmp    $0x77f,%ebx
  10045e:	7f 4d                	jg     1004ad <cons_putc+0x10d>
  100460:	8d 34 1b             	lea    (%ebx,%ebx,1),%esi
}

static inline void
outb(ushort port, uchar data)
{
  asm volatile("out %0,%1" : : "a" (data), "d" (port));
  100463:	b9 d4 03 00 00       	mov    $0x3d4,%ecx
  100468:	b8 0e 00 00 00       	mov    $0xe,%eax
  10046d:	89 ca                	mov    %ecx,%edx
  10046f:	ee                   	out    %al,(%dx)
  
  outb(CRTPORT, 14);
  outb(CRTPORT+1, pos>>8);
  outb(CRTPORT, 15);
  outb(CRTPORT+1, pos);
  crt[pos] = ' ' | 0x0700;
  100470:	bf d5 03 00 00       	mov    $0x3d5,%edi
  100475:	89 d8                	mov    %ebx,%eax
  100477:	c1 f8 08             	sar    $0x8,%eax
  10047a:	89 fa                	mov    %edi,%edx
  10047c:	ee                   	out    %al,(%dx)
  10047d:	b8 0f 00 00 00       	mov    $0xf,%eax
  100482:	89 ca                	mov    %ecx,%edx
  100484:	ee                   	out    %al,(%dx)
  100485:	89 d8                	mov    %ebx,%eax
  100487:	89 fa                	mov    %edi,%edx
  100489:	ee                   	out    %al,(%dx)
  10048a:	66 c7 86 00 80 0b 00 	movw   $0x720,0xb8000(%esi)
  100491:	20 07 
      ;
  }

  lpt_putc(c);
  cga_putc(c);
}
  100493:	83 c4 0c             	add    $0xc,%esp
  100496:	5b                   	pop    %ebx
  100497:	5e                   	pop    %esi
  100498:	5f                   	pop    %edi
  100499:	5d                   	pop    %ebp
  10049a:	c3                   	ret    
  10049b:	90                   	nop    
  10049c:	8d 74 26 00          	lea    0x0(%esi,%eiz,1),%esi
}

static inline void
cli(void)
{
  asm volatile("cli");
  1004a0:	fa                   	cli    
  1004a1:	eb fe                	jmp    1004a1 <cons_putc+0x101>
{
  int i;

  for(i = 0; !(inb(LPTPORT+1) & 0x80) && i < 12800; i++)
    ;
  if(c == BACKSPACE)
  1004a3:	b8 08 00 00 00       	mov    $0x8,%eax
  1004a8:	e9 43 ff ff ff       	jmp    1003f0 <cons_putc+0x50>
  } else
    crt[pos++] = (c&0xff) | 0x0700;  // black on white
  
  if((pos/80) >= 24){  // Scroll up.
    memmove(crt, crt+80, sizeof(crt[0])*23*80);
    pos -= 80;
  1004ad:	83 eb 50             	sub    $0x50,%ebx
      crt[--pos] = ' ' | 0x0700;
  } else
    crt[pos++] = (c&0xff) | 0x0700;  // black on white
  
  if((pos/80) >= 24){  // Scroll up.
    memmove(crt, crt+80, sizeof(crt[0])*23*80);
  1004b0:	c7 44 24 08 60 0e 00 	movl   $0xe60,0x8(%esp)
  1004b7:	00 
    pos -= 80;
    memset(crt+pos, 0, sizeof(crt[0])*(24*80 - pos));
  1004b8:	8d 34 1b             	lea    (%ebx,%ebx,1),%esi
      crt[--pos] = ' ' | 0x0700;
  } else
    crt[pos++] = (c&0xff) | 0x0700;  // black on white
  
  if((pos/80) >= 24){  // Scroll up.
    memmove(crt, crt+80, sizeof(crt[0])*23*80);
  1004bb:	c7 44 24 04 a0 80 0b 	movl   $0xb80a0,0x4(%esp)
  1004c2:	00 
  1004c3:	c7 04 24 00 80 0b 00 	movl   $0xb8000,(%esp)
  1004ca:	e8 71 3d 00 00       	call   104240 <memmove>
    pos -= 80;
    memset(crt+pos, 0, sizeof(crt[0])*(24*80 - pos));
  1004cf:	b8 80 07 00 00       	mov    $0x780,%eax
  1004d4:	29 d8                	sub    %ebx,%eax
  1004d6:	01 c0                	add    %eax,%eax
  1004d8:	89 44 24 08          	mov    %eax,0x8(%esp)
  1004dc:	8d 86 00 80 0b 00    	lea    0xb8000(%esi),%eax
  1004e2:	c7 44 24 04 00 00 00 	movl   $0x0,0x4(%esp)
  1004e9:	00 
  1004ea:	89 04 24             	mov    %eax,(%esp)
  1004ed:	e8 be 3c 00 00       	call   1041b0 <memset>
  1004f2:	e9 6c ff ff ff       	jmp    100463 <cons_putc+0xc3>
  pos |= inb(CRTPORT+1);

  if(c == '\n')
    pos += 80 - pos%80;
  else if(c == BACKSPACE){
    if(pos > 0)
  1004f7:	85 db                	test   %ebx,%ebx
  1004f9:	0f 8e 61 ff ff ff    	jle    100460 <cons_putc+0xc0>
      crt[--pos] = ' ' | 0x0700;
  1004ff:	83 eb 01             	sub    $0x1,%ebx
  100502:	66 c7 84 1b 00 80 0b 	movw   $0x720,0xb8000(%ebx,%ebx,1)
  100509:	00 20 07 
  10050c:	e9 47 ff ff ff       	jmp    100458 <cons_putc+0xb8>
  pos = inb(CRTPORT+1) << 8;
  outb(CRTPORT, 15);
  pos |= inb(CRTPORT+1);

  if(c == '\n')
    pos += 80 - pos%80;
  100511:	89 d8                	mov    %ebx,%eax
  100513:	ba 67 66 66 66       	mov    $0x66666667,%edx
  100518:	f7 ea                	imul   %edx
  10051a:	c1 ea 05             	shr    $0x5,%edx
  10051d:	8d 14 92             	lea    (%edx,%edx,4),%edx
  100520:	c1 e2 04             	shl    $0x4,%edx
  100523:	8d 5a 50             	lea    0x50(%edx),%ebx
  100526:	e9 2d ff ff ff       	jmp    100458 <cons_putc+0xb8>
  10052b:	90                   	nop    
  10052c:	8d 74 26 00          	lea    0x0(%esi,%eiz,1),%esi

00100530 <console_intr>:

#define C(x)  ((x)-'@')  // Control-x

void
console_intr(int (*getc)(void))
{
  100530:	55                   	push   %ebp
  100531:	89 e5                	mov    %esp,%ebp
  100533:	57                   	push   %edi
        cons_putc(BACKSPACE);
      }
      break;
    default:
      if(c != 0 && input.e-input.r < INPUT_BUF){
        input.buf[input.e++ % INPUT_BUF] = c;
  100534:	bf f0 98 10 00       	mov    $0x1098f0,%edi

#define C(x)  ((x)-'@')  // Control-x

void
console_intr(int (*getc)(void))
{
  100539:	56                   	push   %esi
  10053a:	53                   	push   %ebx
  10053b:	83 ec 0c             	sub    $0xc,%esp
  10053e:	8b 75 08             	mov    0x8(%ebp),%esi
  int c;

  acquire(&input.lock);
  100541:	c7 04 24 c0 98 10 00 	movl   $0x1098c0,(%esp)
  100548:	e8 f3 3b 00 00       	call   104140 <acquire>
  10054d:	8d 76 00             	lea    0x0(%esi),%esi
  while((c = getc()) >= 0){
  100550:	ff d6                	call   *%esi
  100552:	85 c0                	test   %eax,%eax
  100554:	89 c3                	mov    %eax,%ebx
  100556:	0f 88 a4 00 00 00    	js     100600 <console_intr+0xd0>
    switch(c){
  10055c:	83 fb 10             	cmp    $0x10,%ebx
  10055f:	90                   	nop    
  100560:	0f 84 f2 00 00 00    	je     100658 <console_intr+0x128>
  100566:	83 fb 15             	cmp    $0x15,%ebx
  100569:	8d b4 26 00 00 00 00 	lea    0x0(%esi,%eiz,1),%esi
  100570:	0f 84 c9 00 00 00    	je     10063f <console_intr+0x10f>
  100576:	83 fb 08             	cmp    $0x8,%ebx
  100579:	8d b4 26 00 00 00 00 	lea    0x0(%esi,%eiz,1),%esi
  100580:	0f 84 e2 00 00 00    	je     100668 <console_intr+0x138>
        input.e--;
        cons_putc(BACKSPACE);
      }
      break;
    default:
      if(c != 0 && input.e-input.r < INPUT_BUF){
  100586:	85 db                	test   %ebx,%ebx
  100588:	74 c6                	je     100550 <console_intr+0x20>
  10058a:	8b 15 7c 99 10 00    	mov    0x10997c,%edx
  100590:	89 d0                	mov    %edx,%eax
  100592:	2b 05 74 99 10 00    	sub    0x109974,%eax
  100598:	83 f8 7f             	cmp    $0x7f,%eax
  10059b:	77 b3                	ja     100550 <console_intr+0x20>
        input.buf[input.e++ % INPUT_BUF] = c;
  10059d:	89 d0                	mov    %edx,%eax
  10059f:	83 e0 7f             	and    $0x7f,%eax
  1005a2:	88 5c 07 04          	mov    %bl,0x4(%edi,%eax,1)
  1005a6:	8d 42 01             	lea    0x1(%edx),%eax
  1005a9:	a3 7c 99 10 00       	mov    %eax,0x10997c
        cons_putc(c);
  1005ae:	89 1c 24             	mov    %ebx,(%esp)
  1005b1:	e8 ea fd ff ff       	call   1003a0 <cons_putc>
        if(c == '\n' || c == C('D') || input.e == input.r+INPUT_BUF){
  1005b6:	83 fb 0a             	cmp    $0xa,%ebx
  1005b9:	0f 84 d3 00 00 00    	je     100692 <console_intr+0x162>
  1005bf:	83 fb 04             	cmp    $0x4,%ebx
  1005c2:	0f 84 ca 00 00 00    	je     100692 <console_intr+0x162>
  1005c8:	a1 74 99 10 00       	mov    0x109974,%eax
  1005cd:	8b 15 7c 99 10 00    	mov    0x10997c,%edx
  1005d3:	83 e8 80             	sub    $0xffffff80,%eax
  1005d6:	39 c2                	cmp    %eax,%edx
  1005d8:	0f 85 72 ff ff ff    	jne    100550 <console_intr+0x20>
          input.w = input.e;
  1005de:	89 15 78 99 10 00    	mov    %edx,0x109978
          wakeup(&input.r);
  1005e4:	c7 04 24 74 99 10 00 	movl   $0x109974,(%esp)
  1005eb:	e8 50 2e 00 00       	call   103440 <wakeup>
console_intr(int (*getc)(void))
{
  int c;

  acquire(&input.lock);
  while((c = getc()) >= 0){
  1005f0:	ff d6                	call   *%esi
  1005f2:	85 c0                	test   %eax,%eax
  1005f4:	89 c3                	mov    %eax,%ebx
  1005f6:	0f 89 60 ff ff ff    	jns    10055c <console_intr+0x2c>
  1005fc:	8d 74 26 00          	lea    0x0(%esi,%eiz,1),%esi
        }
      }
      break;
    }
  }
  release(&input.lock);
  100600:	c7 45 08 c0 98 10 00 	movl   $0x1098c0,0x8(%ebp)
}
  100607:	83 c4 0c             	add    $0xc,%esp
  10060a:	5b                   	pop    %ebx
  10060b:	5e                   	pop    %esi
  10060c:	5f                   	pop    %edi
  10060d:	5d                   	pop    %ebp
        }
      }
      break;
    }
  }
  release(&input.lock);
  10060e:	e9 ed 3a 00 00       	jmp    104100 <release>
  100613:	90                   	nop    
  100614:	8d 74 26 00          	lea    0x0(%esi,%eiz,1),%esi
    switch(c){
    case C('P'):  // Process listing.
      procdump();
      break;
    case C('U'):  // Kill line.
      while(input.e != input.w &&
  100618:	8d 50 ff             	lea    -0x1(%eax),%edx
  10061b:	89 d0                	mov    %edx,%eax
  10061d:	83 e0 7f             	and    $0x7f,%eax
  100620:	80 b8 f4 98 10 00 0a 	cmpb   $0xa,0x1098f4(%eax)
  100627:	0f 84 23 ff ff ff    	je     100550 <console_intr+0x20>
            input.buf[(input.e-1) % INPUT_BUF] != '\n'){
        input.e--;
  10062d:	89 15 7c 99 10 00    	mov    %edx,0x10997c
        cons_putc(BACKSPACE);
  100633:	c7 04 24 00 01 00 00 	movl   $0x100,(%esp)
  10063a:	e8 61 fd ff ff       	call   1003a0 <cons_putc>
    switch(c){
    case C('P'):  // Process listing.
      procdump();
      break;
    case C('U'):  // Kill line.
      while(input.e != input.w &&
  10063f:	a1 7c 99 10 00       	mov    0x10997c,%eax
  100644:	3b 05 78 99 10 00    	cmp    0x109978,%eax
  10064a:	75 cc                	jne    100618 <console_intr+0xe8>
  10064c:	e9 ff fe ff ff       	jmp    100550 <console_intr+0x20>
  100651:	8d b4 26 00 00 00 00 	lea    0x0(%esi,%eiz,1),%esi

  acquire(&input.lock);
  while((c = getc()) >= 0){
    switch(c){
    case C('P'):  // Process listing.
      procdump();
  100658:	e8 83 2c 00 00       	call   1032e0 <procdump>
  10065d:	8d 76 00             	lea    0x0(%esi),%esi
  100660:	e9 eb fe ff ff       	jmp    100550 <console_intr+0x20>
  100665:	8d 76 00             	lea    0x0(%esi),%esi
        input.e--;
        cons_putc(BACKSPACE);
      }
      break;
    case C('H'):  // Backspace
      if(input.e != input.w){
  100668:	a1 7c 99 10 00       	mov    0x10997c,%eax
  10066d:	3b 05 78 99 10 00    	cmp    0x109978,%eax
  100673:	0f 84 d7 fe ff ff    	je     100550 <console_intr+0x20>
        input.e--;
  100679:	83 e8 01             	sub    $0x1,%eax
  10067c:	a3 7c 99 10 00       	mov    %eax,0x10997c
        cons_putc(BACKSPACE);
  100681:	c7 04 24 00 01 00 00 	movl   $0x100,(%esp)
  100688:	e8 13 fd ff ff       	call   1003a0 <cons_putc>
  10068d:	e9 be fe ff ff       	jmp    100550 <console_intr+0x20>
      break;
    default:
      if(c != 0 && input.e-input.r < INPUT_BUF){
        input.buf[input.e++ % INPUT_BUF] = c;
        cons_putc(c);
        if(c == '\n' || c == C('D') || input.e == input.r+INPUT_BUF){
  100692:	8b 15 7c 99 10 00    	mov    0x10997c,%edx
  100698:	e9 41 ff ff ff       	jmp    1005de <console_intr+0xae>
  10069d:	8d 76 00             	lea    0x0(%esi),%esi

001006a0 <console_write>:
    release(&console_lock);
}

int
console_write(struct inode *ip, char *buf, int n)
{
  1006a0:	55                   	push   %ebp
  1006a1:	89 e5                	mov    %esp,%ebp
  1006a3:	57                   	push   %edi
  1006a4:	56                   	push   %esi
  1006a5:	53                   	push   %ebx
  1006a6:	83 ec 0c             	sub    $0xc,%esp
  int i;

  iunlock(ip);
  1006a9:	8b 45 08             	mov    0x8(%ebp),%eax
    release(&console_lock);
}

int
console_write(struct inode *ip, char *buf, int n)
{
  1006ac:	8b 75 10             	mov    0x10(%ebp),%esi
  1006af:	8b 7d 0c             	mov    0xc(%ebp),%edi
  int i;

  iunlock(ip);
  1006b2:	89 04 24             	mov    %eax,(%esp)
  1006b5:	e8 c6 15 00 00       	call   101c80 <iunlock>
  acquire(&console_lock);
  1006ba:	c7 04 24 c0 80 10 00 	movl   $0x1080c0,(%esp)
  1006c1:	e8 7a 3a 00 00       	call   104140 <acquire>
  for(i = 0; i < n; i++)
  1006c6:	85 f6                	test   %esi,%esi
  1006c8:	7e 19                	jle    1006e3 <console_write+0x43>
  1006ca:	31 db                	xor    %ebx,%ebx
  1006cc:	8d 74 26 00          	lea    0x0(%esi,%eiz,1),%esi
    cons_putc(buf[i] & 0xff);
  1006d0:	0f b6 04 1f          	movzbl (%edi,%ebx,1),%eax
{
  int i;

  iunlock(ip);
  acquire(&console_lock);
  for(i = 0; i < n; i++)
  1006d4:	83 c3 01             	add    $0x1,%ebx
    cons_putc(buf[i] & 0xff);
  1006d7:	89 04 24             	mov    %eax,(%esp)
  1006da:	e8 c1 fc ff ff       	call   1003a0 <cons_putc>
{
  int i;

  iunlock(ip);
  acquire(&console_lock);
  for(i = 0; i < n; i++)
  1006df:	39 de                	cmp    %ebx,%esi
  1006e1:	7f ed                	jg     1006d0 <console_write+0x30>
    cons_putc(buf[i] & 0xff);
  release(&console_lock);
  1006e3:	c7 04 24 c0 80 10 00 	movl   $0x1080c0,(%esp)
  1006ea:	e8 11 3a 00 00       	call   104100 <release>
  ilock(ip);
  1006ef:	8b 45 08             	mov    0x8(%ebp),%eax
  1006f2:	89 04 24             	mov    %eax,(%esp)
  1006f5:	e8 06 16 00 00       	call   101d00 <ilock>

  return n;
}
  1006fa:	83 c4 0c             	add    $0xc,%esp
  1006fd:	89 f0                	mov    %esi,%eax
  1006ff:	5b                   	pop    %ebx
  100700:	5e                   	pop    %esi
  100701:	5f                   	pop    %edi
  100702:	5d                   	pop    %ebp
  100703:	c3                   	ret    
  100704:	8d b6 00 00 00 00    	lea    0x0(%esi),%esi
  10070a:	8d bf 00 00 00 00    	lea    0x0(%edi),%edi

00100710 <printint>:
  cga_putc(c);
}

void
printint(int xx, int base, int sgn)
{
  100710:	55                   	push   %ebp
  100711:	89 e5                	mov    %esp,%ebp
  100713:	57                   	push   %edi
  100714:	56                   	push   %esi
  100715:	53                   	push   %ebx
  100716:	83 ec 1c             	sub    $0x1c,%esp
  static char digits[] = "0123456789ABCDEF";
  char buf[16];
  int i = 0, neg = 0;
  uint x;

  if(sgn && xx < 0){
  100719:	8b 5d 10             	mov    0x10(%ebp),%ebx
  cga_putc(c);
}

void
printint(int xx, int base, int sgn)
{
  10071c:	8b 45 08             	mov    0x8(%ebp),%eax
  10071f:	8b 75 0c             	mov    0xc(%ebp),%esi
  static char digits[] = "0123456789ABCDEF";
  char buf[16];
  int i = 0, neg = 0;
  uint x;

  if(sgn && xx < 0){
  100722:	85 db                	test   %ebx,%ebx
  100724:	74 04                	je     10072a <printint+0x1a>
  100726:	85 c0                	test   %eax,%eax
  100728:	78 5c                	js     100786 <printint+0x76>
    neg = 1;
    x = 0 - xx;
  } else {
    x = xx;
  10072a:	c7 45 e0 00 00 00 00 	movl   $0x0,-0x20(%ebp)
  100731:	31 db                	xor    %ebx,%ebx
  100733:	8d 7d e4             	lea    -0x1c(%ebp),%edi
  100736:	66 90                	xchg   %ax,%ax
  }

  do{
    buf[i++] = digits[x % base];
  100738:	31 d2                	xor    %edx,%edx
  10073a:	f7 f6                	div    %esi
  10073c:	89 c1                	mov    %eax,%ecx
  10073e:	0f b6 82 f9 61 10 00 	movzbl 0x1061f9(%edx),%eax
  100745:	88 04 1f             	mov    %al,(%edi,%ebx,1)
  100748:	83 c3 01             	add    $0x1,%ebx
  }while((x /= base) != 0);
  10074b:	85 c9                	test   %ecx,%ecx
  10074d:	89 c8                	mov    %ecx,%eax
  10074f:	75 e7                	jne    100738 <printint+0x28>
  if(neg)
  100751:	8b 4d e0             	mov    -0x20(%ebp),%ecx
  100754:	85 c9                	test   %ecx,%ecx
  100756:	74 08                	je     100760 <printint+0x50>
    buf[i++] = '-';
  100758:	c6 44 1d e4 2d       	movb   $0x2d,-0x1c(%ebp,%ebx,1)
  10075d:	83 c3 01             	add    $0x1,%ebx

  while(--i >= 0)
  100760:	8d 73 ff             	lea    -0x1(%ebx),%esi
  100763:	8d 1c 37             	lea    (%edi,%esi,1),%ebx
  100766:	66 90                	xchg   %ax,%ax
    cons_putc(buf[i]);
  100768:	0f be 03             	movsbl (%ebx),%eax
    buf[i++] = digits[x % base];
  }while((x /= base) != 0);
  if(neg)
    buf[i++] = '-';

  while(--i >= 0)
  10076b:	83 ee 01             	sub    $0x1,%esi
  10076e:	83 eb 01             	sub    $0x1,%ebx
    cons_putc(buf[i]);
  100771:	89 04 24             	mov    %eax,(%esp)
  100774:	e8 27 fc ff ff       	call   1003a0 <cons_putc>
    buf[i++] = digits[x % base];
  }while((x /= base) != 0);
  if(neg)
    buf[i++] = '-';

  while(--i >= 0)
  100779:	83 fe ff             	cmp    $0xffffffff,%esi
  10077c:	75 ea                	jne    100768 <printint+0x58>
    cons_putc(buf[i]);
}
  10077e:	83 c4 1c             	add    $0x1c,%esp
  100781:	5b                   	pop    %ebx
  100782:	5e                   	pop    %esi
  100783:	5f                   	pop    %edi
  100784:	5d                   	pop    %ebp
  100785:	c3                   	ret    
  int i = 0, neg = 0;
  uint x;

  if(sgn && xx < 0){
    neg = 1;
    x = 0 - xx;
  100786:	f7 d8                	neg    %eax
  100788:	c7 45 e0 01 00 00 00 	movl   $0x1,-0x20(%ebp)
  10078f:	eb a0                	jmp    100731 <printint+0x21>
  100791:	eb 0d                	jmp    1007a0 <cprintf>
  100793:	90                   	nop    
  100794:	90                   	nop    
  100795:	90                   	nop    
  100796:	90                   	nop    
  100797:	90                   	nop    
  100798:	90                   	nop    
  100799:	90                   	nop    
  10079a:	90                   	nop    
  10079b:	90                   	nop    
  10079c:	90                   	nop    
  10079d:	90                   	nop    
  10079e:	90                   	nop    
  10079f:	90                   	nop    

001007a0 <cprintf>:
}

// Print to the console. only understands %d, %x, %p, %s.
void
cprintf(char *fmt, ...)
{
  1007a0:	55                   	push   %ebp
  1007a1:	89 e5                	mov    %esp,%ebp
  1007a3:	57                   	push   %edi
  1007a4:	56                   	push   %esi
  1007a5:	53                   	push   %ebx
  1007a6:	83 ec 1c             	sub    $0x1c,%esp
  int i, c, state, locking;
  uint *argp;
  char *s;

  locking = use_console_lock;
  1007a9:	a1 a4 80 10 00       	mov    0x1080a4,%eax
  if(locking)
  1007ae:	85 c0                	test   %eax,%eax
{
  int i, c, state, locking;
  uint *argp;
  char *s;

  locking = use_console_lock;
  1007b0:	89 45 ec             	mov    %eax,-0x14(%ebp)
  if(locking)
  1007b3:	0f 85 8f 01 00 00    	jne    100948 <cprintf+0x1a8>
    acquire(&console_lock);

  argp = (uint*)(void*)&fmt + 1;
  state = 0;
  for(i = 0; fmt[i]; i++){
  1007b9:	8b 55 08             	mov    0x8(%ebp),%edx
  1007bc:	0f b6 02             	movzbl (%edx),%eax
  1007bf:	84 c0                	test   %al,%al
  1007c1:	0f 84 89 00 00 00    	je     100850 <cprintf+0xb0>

  locking = use_console_lock;
  if(locking)
    acquire(&console_lock);

  argp = (uint*)(void*)&fmt + 1;
  1007c7:	8d 4d 0c             	lea    0xc(%ebp),%ecx
  1007ca:	89 d7                	mov    %edx,%edi
  1007cc:	89 4d f0             	mov    %ecx,-0x10(%ebp)
  1007cf:	31 f6                	xor    %esi,%esi
  1007d1:	eb 20                	jmp    1007f3 <cprintf+0x53>
  1007d3:	90                   	nop    
  1007d4:	8d 74 26 00          	lea    0x0(%esi,%eiz,1),%esi
  state = 0;
  for(i = 0; fmt[i]; i++){
    c = fmt[i] & 0xff;
    switch(state){
    case 0:
      if(c == '%')
  1007d8:	83 fb 25             	cmp    $0x25,%ebx
  1007db:	0f 85 8f 00 00 00    	jne    100870 <cprintf+0xd0>
  1007e1:	be 25 00 00 00       	mov    $0x25,%esi
  1007e6:	66 90                	xchg   %ax,%ax
  if(locking)
    acquire(&console_lock);

  argp = (uint*)(void*)&fmt + 1;
  state = 0;
  for(i = 0; fmt[i]; i++){
  1007e8:	0f b6 47 01          	movzbl 0x1(%edi),%eax
  1007ec:	83 c7 01             	add    $0x1,%edi
  1007ef:	84 c0                	test   %al,%al
  1007f1:	74 5d                	je     100850 <cprintf+0xb0>
    c = fmt[i] & 0xff;
    switch(state){
  1007f3:	85 f6                	test   %esi,%esi
    acquire(&console_lock);

  argp = (uint*)(void*)&fmt + 1;
  state = 0;
  for(i = 0; fmt[i]; i++){
    c = fmt[i] & 0xff;
  1007f5:	0f b6 d8             	movzbl %al,%ebx
    switch(state){
  1007f8:	74 de                	je     1007d8 <cprintf+0x38>
  1007fa:	83 fe 25             	cmp    $0x25,%esi
  1007fd:	75 e9                	jne    1007e8 <cprintf+0x48>
      else
        cons_putc(c);
      break;
    
    case '%':
      switch(c){
  1007ff:	83 fb 70             	cmp    $0x70,%ebx
  100802:	8d b6 00 00 00 00    	lea    0x0(%esi),%esi
  100808:	0f 84 84 00 00 00    	je     100892 <cprintf+0xf2>
  10080e:	66 90                	xchg   %ax,%ax
  100810:	7f 6e                	jg     100880 <cprintf+0xe0>
  100812:	83 fb 25             	cmp    $0x25,%ebx
  100815:	8d 76 00             	lea    0x0(%esi),%esi
  100818:	0f 84 12 01 00 00    	je     100930 <cprintf+0x190>
  10081e:	83 fb 64             	cmp    $0x64,%ebx
  100821:	8d b4 26 00 00 00 00 	lea    0x0(%esi,%eiz,1),%esi
  100828:	0f 84 d2 00 00 00    	je     100900 <cprintf+0x160>
      case '%':
        cons_putc('%');
        break;
      default:
        // Print unknown % sequence to draw attention.
        cons_putc('%');
  10082e:	c7 04 24 25 00 00 00 	movl   $0x25,(%esp)
        cons_putc(c);
  100835:	31 f6                	xor    %esi,%esi
      case '%':
        cons_putc('%');
        break;
      default:
        // Print unknown % sequence to draw attention.
        cons_putc('%');
  100837:	e8 64 fb ff ff       	call   1003a0 <cons_putc>
        cons_putc(c);
  10083c:	89 1c 24             	mov    %ebx,(%esp)
  10083f:	e8 5c fb ff ff       	call   1003a0 <cons_putc>
  if(locking)
    acquire(&console_lock);

  argp = (uint*)(void*)&fmt + 1;
  state = 0;
  for(i = 0; fmt[i]; i++){
  100844:	0f b6 47 01          	movzbl 0x1(%edi),%eax
  100848:	83 c7 01             	add    $0x1,%edi
  10084b:	84 c0                	test   %al,%al
  10084d:	75 a4                	jne    1007f3 <cprintf+0x53>
  10084f:	90                   	nop    
      state = 0;
      break;
    }
  }

  if(locking)
  100850:	8b 75 ec             	mov    -0x14(%ebp),%esi
  100853:	85 f6                	test   %esi,%esi
  100855:	74 0c                	je     100863 <cprintf+0xc3>
    release(&console_lock);
  100857:	c7 04 24 c0 80 10 00 	movl   $0x1080c0,(%esp)
  10085e:	e8 9d 38 00 00       	call   104100 <release>
}
  100863:	83 c4 1c             	add    $0x1c,%esp
  100866:	5b                   	pop    %ebx
  100867:	5e                   	pop    %esi
  100868:	5f                   	pop    %edi
  100869:	5d                   	pop    %ebp
  10086a:	c3                   	ret    
  10086b:	90                   	nop    
  10086c:	8d 74 26 00          	lea    0x0(%esi,%eiz,1),%esi
    switch(state){
    case 0:
      if(c == '%')
        state = '%';
      else
        cons_putc(c);
  100870:	89 1c 24             	mov    %ebx,(%esp)
  100873:	e8 28 fb ff ff       	call   1003a0 <cons_putc>
  100878:	e9 6b ff ff ff       	jmp    1007e8 <cprintf+0x48>
  10087d:	8d 76 00             	lea    0x0(%esi),%esi
      break;
    
    case '%':
      switch(c){
  100880:	83 fb 73             	cmp    $0x73,%ebx
  100883:	90                   	nop    
  100884:	8d 74 26 00          	lea    0x0(%esi,%eiz,1),%esi
  100888:	74 36                	je     1008c0 <cprintf+0x120>
  10088a:	83 fb 78             	cmp    $0x78,%ebx
  10088d:	8d 76 00             	lea    0x0(%esi),%esi
  100890:	75 9c                	jne    10082e <cprintf+0x8e>
      case 'd':
        printint(*argp++, 10, 1);
        break;
      case 'x':
      case 'p':
        printint(*argp++, 16, 0);
  100892:	8b 4d f0             	mov    -0x10(%ebp),%ecx
  100895:	31 f6                	xor    %esi,%esi
  100897:	8b 01                	mov    (%ecx),%eax
  100899:	83 c1 04             	add    $0x4,%ecx
  10089c:	89 4d f0             	mov    %ecx,-0x10(%ebp)
  10089f:	c7 44 24 08 00 00 00 	movl   $0x0,0x8(%esp)
  1008a6:	00 
  1008a7:	c7 44 24 04 10 00 00 	movl   $0x10,0x4(%esp)
  1008ae:	00 
  1008af:	89 04 24             	mov    %eax,(%esp)
  1008b2:	e8 59 fe ff ff       	call   100710 <printint>
  1008b7:	e9 2c ff ff ff       	jmp    1007e8 <cprintf+0x48>
  1008bc:	8d 74 26 00          	lea    0x0(%esi,%eiz,1),%esi
        break;
      case 's':
        s = (char*)*argp++;
  1008c0:	8b 45 f0             	mov    -0x10(%ebp),%eax
  1008c3:	8b 18                	mov    (%eax),%ebx
  1008c5:	83 c0 04             	add    $0x4,%eax
  1008c8:	89 45 f0             	mov    %eax,-0x10(%ebp)
        if(s == 0)
  1008cb:	85 db                	test   %ebx,%ebx
  1008cd:	0f 84 8a 00 00 00    	je     10095d <cprintf+0x1bd>
          s = "(null)";
        for(; *s; s++)
  1008d3:	0f b6 03             	movzbl (%ebx),%eax
  1008d6:	84 c0                	test   %al,%al
  1008d8:	74 1b                	je     1008f5 <cprintf+0x155>
  1008da:	8d b6 00 00 00 00    	lea    0x0(%esi),%esi
          cons_putc(*s);
  1008e0:	0f be c0             	movsbl %al,%eax
        break;
      case 's':
        s = (char*)*argp++;
        if(s == 0)
          s = "(null)";
        for(; *s; s++)
  1008e3:	83 c3 01             	add    $0x1,%ebx
          cons_putc(*s);
  1008e6:	89 04 24             	mov    %eax,(%esp)
  1008e9:	e8 b2 fa ff ff       	call   1003a0 <cons_putc>
        break;
      case 's':
        s = (char*)*argp++;
        if(s == 0)
          s = "(null)";
        for(; *s; s++)
  1008ee:	0f b6 03             	movzbl (%ebx),%eax
  1008f1:	84 c0                	test   %al,%al
  1008f3:	75 eb                	jne    1008e0 <cprintf+0x140>
        cons_putc('%');
        break;
      default:
        // Print unknown % sequence to draw attention.
        cons_putc('%');
        cons_putc(c);
  1008f5:	31 f6                	xor    %esi,%esi
  1008f7:	e9 ec fe ff ff       	jmp    1007e8 <cprintf+0x48>
  1008fc:	8d 74 26 00          	lea    0x0(%esi,%eiz,1),%esi
      break;
    
    case '%':
      switch(c){
      case 'd':
        printint(*argp++, 10, 1);
  100900:	8b 55 f0             	mov    -0x10(%ebp),%edx
  100903:	31 f6                	xor    %esi,%esi
  100905:	8b 02                	mov    (%edx),%eax
  100907:	83 c2 04             	add    $0x4,%edx
  10090a:	89 55 f0             	mov    %edx,-0x10(%ebp)
  10090d:	c7 44 24 08 01 00 00 	movl   $0x1,0x8(%esp)
  100914:	00 
  100915:	c7 44 24 04 0a 00 00 	movl   $0xa,0x4(%esp)
  10091c:	00 
  10091d:	89 04 24             	mov    %eax,(%esp)
  100920:	e8 eb fd ff ff       	call   100710 <printint>
  100925:	e9 be fe ff ff       	jmp    1007e8 <cprintf+0x48>
  10092a:	8d b6 00 00 00 00    	lea    0x0(%esi),%esi
          s = "(null)";
        for(; *s; s++)
          cons_putc(*s);
        break;
      case '%':
        cons_putc('%');
  100930:	c7 04 24 25 00 00 00 	movl   $0x25,(%esp)
  100937:	31 f6                	xor    %esi,%esi
  100939:	e8 62 fa ff ff       	call   1003a0 <cons_putc>
  10093e:	66 90                	xchg   %ax,%ax
  100940:	e9 a3 fe ff ff       	jmp    1007e8 <cprintf+0x48>
  100945:	8d 76 00             	lea    0x0(%esi),%esi
  uint *argp;
  char *s;

  locking = use_console_lock;
  if(locking)
    acquire(&console_lock);
  100948:	c7 04 24 c0 80 10 00 	movl   $0x1080c0,(%esp)
  10094f:	e8 ec 37 00 00       	call   104140 <acquire>
  100954:	8d 74 26 00          	lea    0x0(%esi,%eiz,1),%esi
  100958:	e9 5c fe ff ff       	jmp    1007b9 <cprintf+0x19>
      case 'p':
        printint(*argp++, 16, 0);
        break;
      case 's':
        s = (char*)*argp++;
        if(s == 0)
  10095d:	bb df 61 10 00       	mov    $0x1061df,%ebx
  100962:	e9 6c ff ff ff       	jmp    1008d3 <cprintf+0x133>
  100967:	89 f6                	mov    %esi,%esi
  100969:	8d bc 27 00 00 00 00 	lea    0x0(%edi,%eiz,1),%edi

00100970 <panic>:
  ioapic_enable(IRQ_KBD, 0);
}

void
panic(char *s)
{
  100970:	55                   	push   %ebp
  100971:	89 e5                	mov    %esp,%ebp
  100973:	53                   	push   %ebx
  100974:	83 ec 44             	sub    $0x44,%esp
  int i;
  uint pcs[10];
  
  __asm __volatile("cli");
  100977:	fa                   	cli    
  use_console_lock = 0;
  100978:	c7 05 a4 80 10 00 00 	movl   $0x0,0x1080a4
  10097f:	00 00 00 
  cprintf("cpu%d: panic: ", cpu());
  cprintf(s);
  cprintf("\n");
  getcallerpcs(&s, pcs);
  100982:	8d 5d d4             	lea    -0x2c(%ebp),%ebx
  int i;
  uint pcs[10];
  
  __asm __volatile("cli");
  use_console_lock = 0;
  cprintf("cpu%d: panic: ", cpu());
  100985:	e8 a6 1f 00 00       	call   102930 <cpu>
  10098a:	c7 04 24 e6 61 10 00 	movl   $0x1061e6,(%esp)
  100991:	89 44 24 04          	mov    %eax,0x4(%esp)
  100995:	e8 06 fe ff ff       	call   1007a0 <cprintf>
  cprintf(s);
  10099a:	8b 45 08             	mov    0x8(%ebp),%eax
  10099d:	89 04 24             	mov    %eax,(%esp)
  1009a0:	e8 fb fd ff ff       	call   1007a0 <cprintf>
  cprintf("\n");
  1009a5:	c7 04 24 33 66 10 00 	movl   $0x106633,(%esp)
  1009ac:	e8 ef fd ff ff       	call   1007a0 <cprintf>
  getcallerpcs(&s, pcs);
  1009b1:	8d 45 08             	lea    0x8(%ebp),%eax
  1009b4:	89 5c 24 04          	mov    %ebx,0x4(%esp)
  1009b8:	89 04 24             	mov    %eax,(%esp)
  1009bb:	e8 d0 35 00 00       	call   103f90 <getcallerpcs>
  for(i=0; i<10; i++)
    cprintf(" %p", pcs[i]);
  1009c0:	8b 03                	mov    (%ebx),%eax
  1009c2:	83 c3 04             	add    $0x4,%ebx
  1009c5:	c7 04 24 f5 61 10 00 	movl   $0x1061f5,(%esp)
  1009cc:	89 44 24 04          	mov    %eax,0x4(%esp)
  1009d0:	e8 cb fd ff ff       	call   1007a0 <cprintf>
  use_console_lock = 0;
  cprintf("cpu%d: panic: ", cpu());
  cprintf(s);
  cprintf("\n");
  getcallerpcs(&s, pcs);
  for(i=0; i<10; i++)
  1009d5:	8d 45 fc             	lea    -0x4(%ebp),%eax
  1009d8:	39 c3                	cmp    %eax,%ebx
  1009da:	75 e4                	jne    1009c0 <panic+0x50>
    cprintf(" %p", pcs[i]);
  panicked = 1; // freeze other CPU
  1009dc:	c7 05 a0 80 10 00 01 	movl   $0x1,0x1080a0
  1009e3:	00 00 00 
  1009e6:	eb fe                	jmp    1009e6 <panic+0x76>
  1009e8:	90                   	nop    
  1009e9:	90                   	nop    
  1009ea:	90                   	nop    
  1009eb:	90                   	nop    
  1009ec:	90                   	nop    
  1009ed:	90                   	nop    
  1009ee:	90                   	nop    
  1009ef:	90                   	nop    

001009f0 <exec>:
#include "x86.h"
#include "elf.h"

int
exec(char *path, char **argv)
{
  1009f0:	55                   	push   %ebp
  1009f1:	89 e5                	mov    %esp,%ebp
  1009f3:	57                   	push   %edi
  1009f4:	56                   	push   %esi
  1009f5:	53                   	push   %ebx
  1009f6:	81 ec 8c 00 00 00    	sub    $0x8c,%esp
  uint sz, sp, argp;
  struct elfhdr elf;
  struct inode *ip;
  struct proghdr ph;

  if((ip = namei(path)) == 0)
  1009fc:	8b 45 08             	mov    0x8(%ebp),%eax
  1009ff:	89 04 24             	mov    %eax,(%esp)
  100a02:	e8 a9 15 00 00       	call   101fb0 <namei>
  100a07:	89 c6                	mov    %eax,%esi
  100a09:	b8 ff ff ff ff       	mov    $0xffffffff,%eax
  100a0e:	85 f6                	test   %esi,%esi
  100a10:	74 48                	je     100a5a <exec+0x6a>
    return -1;
  ilock(ip);
  100a12:	89 34 24             	mov    %esi,(%esp)
  100a15:	e8 e6 12 00 00       	call   101d00 <ilock>
  // Compute memory size of new process.
  mem = 0;
  sz = 0;

  // Program segments.
  if(readi(ip, (char*)&elf, 0, sizeof(elf)) < sizeof(elf))
  100a1a:	8d 45 a0             	lea    -0x60(%ebp),%eax
  100a1d:	c7 44 24 0c 34 00 00 	movl   $0x34,0xc(%esp)
  100a24:	00 
  100a25:	c7 44 24 08 00 00 00 	movl   $0x0,0x8(%esp)
  100a2c:	00 
  100a2d:	89 44 24 04          	mov    %eax,0x4(%esp)
  100a31:	89 34 24             	mov    %esi,(%esp)
  100a34:	e8 47 0a 00 00       	call   101480 <readi>
  100a39:	83 f8 33             	cmp    $0x33,%eax
  100a3c:	76 09                	jbe    100a47 <exec+0x57>
    goto bad;
  if(elf.magic != ELF_MAGIC)
  100a3e:	81 7d a0 7f 45 4c 46 	cmpl   $0x464c457f,-0x60(%ebp)
  100a45:	74 21                	je     100a68 <exec+0x78>
  return 0;

 bad:
  if(mem)
    kfree(mem, sz);
  iunlockput(ip);
  100a47:	89 34 24             	mov    %esi,(%esp)
  100a4a:	8d b6 00 00 00 00    	lea    0x0(%esi),%esi
  100a50:	e8 8b 12 00 00       	call   101ce0 <iunlockput>
  100a55:	b8 ff ff ff ff       	mov    $0xffffffff,%eax
  return -1;
}
  100a5a:	81 c4 8c 00 00 00    	add    $0x8c,%esp
  100a60:	5b                   	pop    %ebx
  100a61:	5e                   	pop    %esi
  100a62:	5f                   	pop    %edi
  100a63:	5d                   	pop    %ebp
  100a64:	c3                   	ret    
  100a65:	8d 76 00             	lea    0x0(%esi),%esi
  // Program segments.
  if(readi(ip, (char*)&elf, 0, sizeof(elf)) < sizeof(elf))
    goto bad;
  if(elf.magic != ELF_MAGIC)
    goto bad;
  for(i=0, off=elf.phoff; i<elf.phnum; i++, off+=sizeof(ph)){
  100a68:	66 83 7d cc 00       	cmpw   $0x0,-0x34(%ebp)
  100a6d:	8b 7d bc             	mov    -0x44(%ebp),%edi
  100a70:	c7 45 80 00 00 00 00 	movl   $0x0,-0x80(%ebp)
  100a77:	74 67                	je     100ae0 <exec+0xf0>
  100a79:	31 db                	xor    %ebx,%ebx
  100a7b:	c7 45 80 00 00 00 00 	movl   $0x0,-0x80(%ebp)
  100a82:	eb 0f                	jmp    100a93 <exec+0xa3>
  100a84:	8d 74 26 00          	lea    0x0(%esi,%eiz,1),%esi
  100a88:	0f b7 45 cc          	movzwl -0x34(%ebp),%eax
  100a8c:	83 c3 01             	add    $0x1,%ebx
  100a8f:	39 d8                	cmp    %ebx,%eax
  100a91:	7e 4d                	jle    100ae0 <exec+0xf0>
    if(readi(ip, (char*)&ph, off, sizeof(ph)) != sizeof(ph))
  100a93:	89 d8                	mov    %ebx,%eax
  100a95:	c1 e0 05             	shl    $0x5,%eax
  100a98:	01 f8                	add    %edi,%eax
  100a9a:	8d 55 d4             	lea    -0x2c(%ebp),%edx
  100a9d:	c7 44 24 0c 20 00 00 	movl   $0x20,0xc(%esp)
  100aa4:	00 
  100aa5:	89 44 24 08          	mov    %eax,0x8(%esp)
  100aa9:	89 54 24 04          	mov    %edx,0x4(%esp)
  100aad:	89 34 24             	mov    %esi,(%esp)
  100ab0:	e8 cb 09 00 00       	call   101480 <readi>
  100ab5:	83 f8 20             	cmp    $0x20,%eax
  100ab8:	75 8d                	jne    100a47 <exec+0x57>
      goto bad;
    if(ph.type != ELF_PROG_LOAD)
  100aba:	83 7d d4 01          	cmpl   $0x1,-0x2c(%ebp)
  100abe:	75 c8                	jne    100a88 <exec+0x98>
      continue;
    if(ph.memsz < ph.filesz)
  100ac0:	8b 45 e8             	mov    -0x18(%ebp),%eax
  100ac3:	3b 45 e4             	cmp    -0x1c(%ebp),%eax
  100ac6:	66 90                	xchg   %ax,%ax
  100ac8:	0f 82 79 ff ff ff    	jb     100a47 <exec+0x57>
      goto bad;
    sz += ph.memsz;
  100ace:	01 45 80             	add    %eax,-0x80(%ebp)
  100ad1:	8d b4 26 00 00 00 00 	lea    0x0(%esi,%eiz,1),%esi
  100ad8:	eb ae                	jmp    100a88 <exec+0x98>
  100ada:	8d b6 00 00 00 00    	lea    0x0(%esi),%esi
  }
  
  // Arguments.
  arglen = 0;
  for(argc=0; argv[argc]; argc++)
  100ae0:	8b 4d 0c             	mov    0xc(%ebp),%ecx
  100ae3:	31 db                	xor    %ebx,%ebx
  100ae5:	b8 04 00 00 00       	mov    $0x4,%eax
  100aea:	c7 85 7c ff ff ff 00 	movl   $0x0,-0x84(%ebp)
  100af1:	00 00 00 
  100af4:	c7 45 88 00 00 00 00 	movl   $0x0,-0x78(%ebp)
  100afb:	8b 11                	mov    (%ecx),%edx
  100afd:	85 d2                	test   %edx,%edx
  100aff:	74 38                	je     100b39 <exec+0x149>
  100b01:	8d b4 26 00 00 00 00 	lea    0x0(%esi,%eiz,1),%esi
    arglen += strlen(argv[argc]) + 1;
  100b08:	89 14 24             	mov    %edx,(%esp)
  100b0b:	e8 80 38 00 00       	call   104390 <strlen>
    sz += ph.memsz;
  }
  
  // Arguments.
  arglen = 0;
  for(argc=0; argv[argc]; argc++)
  100b10:	8b 4d 0c             	mov    0xc(%ebp),%ecx
  100b13:	83 85 7c ff ff ff 01 	addl   $0x1,-0x84(%ebp)
  100b1a:	8b bd 7c ff ff ff    	mov    -0x84(%ebp),%edi
  100b20:	8b 14 b9             	mov    (%ecx,%edi,4),%edx
    arglen += strlen(argv[argc]) + 1;
  100b23:	01 d8                	add    %ebx,%eax
  100b25:	8d 58 01             	lea    0x1(%eax),%ebx
    sz += ph.memsz;
  }
  
  // Arguments.
  arglen = 0;
  for(argc=0; argv[argc]; argc++)
  100b28:	85 d2                	test   %edx,%edx
  100b2a:	75 dc                	jne    100b08 <exec+0x118>
  100b2c:	83 c0 04             	add    $0x4,%eax
  100b2f:	83 e0 fc             	and    $0xfffffffc,%eax
  100b32:	89 45 88             	mov    %eax,-0x78(%ebp)
  100b35:	8d 44 b8 04          	lea    0x4(%eax,%edi,4),%eax

  // Stack.
  sz += PAGE;
  
  // Allocate program memory.
  sz = (sz+PAGE-1) & ~(PAGE-1);
  100b39:	8b 7d 80             	mov    -0x80(%ebp),%edi
  100b3c:	8d 84 38 ff 1f 00 00 	lea    0x1fff(%eax,%edi,1),%eax
  100b43:	25 00 f0 ff ff       	and    $0xfffff000,%eax
  100b48:	89 45 8c             	mov    %eax,-0x74(%ebp)
  mem = kalloc(sz);
  100b4b:	89 04 24             	mov    %eax,(%esp)
  100b4e:	e8 2d 18 00 00       	call   102380 <kalloc>
  if(mem == 0)
  100b53:	85 c0                	test   %eax,%eax
  // Stack.
  sz += PAGE;
  
  // Allocate program memory.
  sz = (sz+PAGE-1) & ~(PAGE-1);
  mem = kalloc(sz);
  100b55:	89 85 78 ff ff ff    	mov    %eax,-0x88(%ebp)
  if(mem == 0)
  100b5b:	0f 84 e6 fe ff ff    	je     100a47 <exec+0x57>
    goto bad;
  memset(mem, 0, sz);
  100b61:	8b 45 8c             	mov    -0x74(%ebp),%eax
  100b64:	8b 95 78 ff ff ff    	mov    -0x88(%ebp),%edx
  100b6a:	c7 44 24 04 00 00 00 	movl   $0x0,0x4(%esp)
  100b71:	00 
  100b72:	89 44 24 08          	mov    %eax,0x8(%esp)
  100b76:	89 14 24             	mov    %edx,(%esp)
  100b79:	e8 32 36 00 00       	call   1041b0 <memset>

  // Load program into memory.
  for(i=0, off=elf.phoff; i<elf.phnum; i++, off+=sizeof(ph)){
  100b7e:	8b 45 bc             	mov    -0x44(%ebp),%eax
  100b81:	66 83 7d cc 00       	cmpw   $0x0,-0x34(%ebp)
  100b86:	0f 84 be 00 00 00    	je     100c4a <exec+0x25a>
  100b8c:	89 c7                	mov    %eax,%edi
  100b8e:	31 db                	xor    %ebx,%ebx
  100b90:	eb 18                	jmp    100baa <exec+0x1ba>
  100b92:	8d b6 00 00 00 00    	lea    0x0(%esi),%esi
  100b98:	0f b7 45 cc          	movzwl -0x34(%ebp),%eax
  100b9c:	83 c3 01             	add    $0x1,%ebx
  100b9f:	39 d8                	cmp    %ebx,%eax
  100ba1:	0f 8e a3 00 00 00    	jle    100c4a <exec+0x25a>
  100ba7:	83 c7 20             	add    $0x20,%edi
    if(readi(ip, (char*)&ph, off, sizeof(ph)) != sizeof(ph))
  100baa:	8d 4d d4             	lea    -0x2c(%ebp),%ecx
  100bad:	c7 44 24 0c 20 00 00 	movl   $0x20,0xc(%esp)
  100bb4:	00 
  100bb5:	89 7c 24 08          	mov    %edi,0x8(%esp)
  100bb9:	89 4c 24 04          	mov    %ecx,0x4(%esp)
  100bbd:	89 34 24             	mov    %esi,(%esp)
  100bc0:	e8 bb 08 00 00       	call   101480 <readi>
  100bc5:	83 f8 20             	cmp    $0x20,%eax
  100bc8:	75 66                	jne    100c30 <exec+0x240>
      goto bad;
    if(ph.type != ELF_PROG_LOAD)
  100bca:	83 7d d4 01          	cmpl   $0x1,-0x2c(%ebp)
  100bce:	75 c8                	jne    100b98 <exec+0x1a8>
      continue;
    if(ph.va + ph.memsz > sz)
  100bd0:	8b 55 dc             	mov    -0x24(%ebp),%edx
  100bd3:	89 d0                	mov    %edx,%eax
  100bd5:	03 45 e8             	add    -0x18(%ebp),%eax
  100bd8:	39 45 8c             	cmp    %eax,-0x74(%ebp)
  100bdb:	72 53                	jb     100c30 <exec+0x240>
      goto bad;
    if(readi(ip, mem + ph.va, ph.offset, ph.filesz) != ph.filesz)
  100bdd:	8b 45 e4             	mov    -0x1c(%ebp),%eax
  100be0:	89 34 24             	mov    %esi,(%esp)
  100be3:	89 44 24 0c          	mov    %eax,0xc(%esp)
  100be7:	8b 45 d8             	mov    -0x28(%ebp),%eax
  100bea:	89 44 24 08          	mov    %eax,0x8(%esp)
  100bee:	8b 85 78 ff ff ff    	mov    -0x88(%ebp),%eax
  100bf4:	01 d0                	add    %edx,%eax
  100bf6:	89 44 24 04          	mov    %eax,0x4(%esp)
  100bfa:	e8 81 08 00 00       	call   101480 <readi>
  100bff:	3b 45 e4             	cmp    -0x1c(%ebp),%eax
  100c02:	89 c2                	mov    %eax,%edx
  100c04:	75 2a                	jne    100c30 <exec+0x240>
      goto bad;
    memset(mem + ph.va + ph.filesz, 0, ph.memsz - ph.filesz);
  100c06:	8b 45 e8             	mov    -0x18(%ebp),%eax
  100c09:	c7 44 24 04 00 00 00 	movl   $0x0,0x4(%esp)
  100c10:	00 
  100c11:	29 d0                	sub    %edx,%eax
  100c13:	89 44 24 08          	mov    %eax,0x8(%esp)
  100c17:	8b 85 78 ff ff ff    	mov    -0x88(%ebp),%eax
  100c1d:	03 55 dc             	add    -0x24(%ebp),%edx
  100c20:	01 d0                	add    %edx,%eax
  100c22:	89 04 24             	mov    %eax,(%esp)
  100c25:	e8 86 35 00 00       	call   1041b0 <memset>
  100c2a:	e9 69 ff ff ff       	jmp    100b98 <exec+0x1a8>
  100c2f:	90                   	nop    
  setupsegs(cp);
  return 0;

 bad:
  if(mem)
    kfree(mem, sz);
  100c30:	8b 4d 8c             	mov    -0x74(%ebp),%ecx
  100c33:	8b bd 78 ff ff ff    	mov    -0x88(%ebp),%edi
  100c39:	89 4c 24 04          	mov    %ecx,0x4(%esp)
  100c3d:	89 3c 24             	mov    %edi,(%esp)
  100c40:	e8 fb 17 00 00       	call   102440 <kfree>
  100c45:	e9 fd fd ff ff       	jmp    100a47 <exec+0x57>
      goto bad;
    if(readi(ip, mem + ph.va, ph.offset, ph.filesz) != ph.filesz)
      goto bad;
    memset(mem + ph.va + ph.filesz, 0, ph.memsz - ph.filesz);
  }
  iunlockput(ip);
  100c4a:	89 34 24             	mov    %esi,(%esp)
  100c4d:	e8 8e 10 00 00       	call   101ce0 <iunlockput>
  
  // Initialize stack.
  sp = sz;
  argp = sz - arglen - 4*(argc+1);
  100c52:	8b 95 7c ff ff ff    	mov    -0x84(%ebp),%edx
  100c58:	8b 45 8c             	mov    -0x74(%ebp),%eax
  100c5b:	2b 45 88             	sub    -0x78(%ebp),%eax

  // Copy argv strings and pointers to stack.
  *(uint*)(mem+argp + 4*argc) = 0;  // argv[argc]
  100c5e:	8b bd 7c ff ff ff    	mov    -0x84(%ebp),%edi
  }
  iunlockput(ip);
  
  // Initialize stack.
  sp = sz;
  argp = sz - arglen - 4*(argc+1);
  100c64:	f7 d2                	not    %edx
  100c66:	8d 14 90             	lea    (%eax,%edx,4),%edx
  100c69:	89 55 84             	mov    %edx,-0x7c(%ebp)

  // Copy argv strings and pointers to stack.
  *(uint*)(mem+argp + 4*argc) = 0;  // argv[argc]
  100c6c:	8d 04 ba             	lea    (%edx,%edi,4),%eax
  100c6f:	8b 95 78 ff ff ff    	mov    -0x88(%ebp),%edx
  for(i=argc-1; i>=0; i--){
  100c75:	83 ef 01             	sub    $0x1,%edi
  100c78:	83 ff ff             	cmp    $0xffffffff,%edi
  100c7b:	89 7d 90             	mov    %edi,-0x70(%ebp)
  // Initialize stack.
  sp = sz;
  argp = sz - arglen - 4*(argc+1);

  // Copy argv strings and pointers to stack.
  *(uint*)(mem+argp + 4*argc) = 0;  // argv[argc]
  100c7e:	c7 04 10 00 00 00 00 	movl   $0x0,(%eax,%edx,1)
  for(i=argc-1; i>=0; i--){
  100c85:	74 54                	je     100cdb <exec+0x2eb>
  100c87:	8b 75 0c             	mov    0xc(%ebp),%esi
  100c8a:	89 f8                	mov    %edi,%eax
  100c8c:	89 d7                	mov    %edx,%edi
  100c8e:	c1 e0 02             	shl    $0x2,%eax
  100c91:	8b 5d 8c             	mov    -0x74(%ebp),%ebx
  100c94:	01 c6                	add    %eax,%esi
  100c96:	03 45 84             	add    -0x7c(%ebp),%eax
  100c99:	01 c7                	add    %eax,%edi
  100c9b:	90                   	nop    
  100c9c:	8d 74 26 00          	lea    0x0(%esi,%eiz,1),%esi
    len = strlen(argv[i]) + 1;
  100ca0:	8b 06                	mov    (%esi),%eax
  100ca2:	89 04 24             	mov    %eax,(%esp)
  100ca5:	e8 e6 36 00 00       	call   104390 <strlen>
    sp -= len;
  100caa:	83 c0 01             	add    $0x1,%eax
  100cad:	29 c3                	sub    %eax,%ebx
    memmove(mem+sp, argv[i], len);
  100caf:	89 44 24 08          	mov    %eax,0x8(%esp)
  100cb3:	8b 06                	mov    (%esi),%eax
  sp = sz;
  argp = sz - arglen - 4*(argc+1);

  // Copy argv strings and pointers to stack.
  *(uint*)(mem+argp + 4*argc) = 0;  // argv[argc]
  for(i=argc-1; i>=0; i--){
  100cb5:	83 ee 04             	sub    $0x4,%esi
    len = strlen(argv[i]) + 1;
    sp -= len;
    memmove(mem+sp, argv[i], len);
  100cb8:	89 44 24 04          	mov    %eax,0x4(%esp)
  100cbc:	8b 85 78 ff ff ff    	mov    -0x88(%ebp),%eax
  100cc2:	01 d8                	add    %ebx,%eax
  100cc4:	89 04 24             	mov    %eax,(%esp)
  100cc7:	e8 74 35 00 00       	call   104240 <memmove>
  sp = sz;
  argp = sz - arglen - 4*(argc+1);

  // Copy argv strings and pointers to stack.
  *(uint*)(mem+argp + 4*argc) = 0;  // argv[argc]
  for(i=argc-1; i>=0; i--){
  100ccc:	83 6d 90 01          	subl   $0x1,-0x70(%ebp)
    len = strlen(argv[i]) + 1;
    sp -= len;
    memmove(mem+sp, argv[i], len);
    *(uint*)(mem+argp + 4*i) = sp;  // argv[i]
  100cd0:	89 1f                	mov    %ebx,(%edi)
  sp = sz;
  argp = sz - arglen - 4*(argc+1);

  // Copy argv strings and pointers to stack.
  *(uint*)(mem+argp + 4*argc) = 0;  // argv[argc]
  for(i=argc-1; i>=0; i--){
  100cd2:	83 ef 04             	sub    $0x4,%edi
  100cd5:	83 7d 90 ff          	cmpl   $0xffffffff,-0x70(%ebp)
  100cd9:	75 c5                	jne    100ca0 <exec+0x2b0>
  }

  // Stack frame for main(argc, argv), below arguments.
  sp = argp;
  sp -= 4;
  *(uint*)(mem+sp) = argp;
  100cdb:	8b 4d 84             	mov    -0x7c(%ebp),%ecx
  100cde:	8b bd 78 ff ff ff    	mov    -0x88(%ebp),%edi
  sp -= 4;
  *(uint*)(mem+sp) = argc;
  100ce4:	8b 85 7c ff ff ff    	mov    -0x84(%ebp),%eax
  sp -= 4;
  100cea:	89 ce                	mov    %ecx,%esi
  }

  // Stack frame for main(argc, argv), below arguments.
  sp = argp;
  sp -= 4;
  *(uint*)(mem+sp) = argp;
  100cec:	89 4c 0f fc          	mov    %ecx,-0x4(%edi,%ecx,1)
  sp -= 4;
  *(uint*)(mem+sp) = argc;
  sp -= 4;
  100cf0:	83 ee 0c             	sub    $0xc,%esi
  // Stack frame for main(argc, argv), below arguments.
  sp = argp;
  sp -= 4;
  *(uint*)(mem+sp) = argp;
  sp -= 4;
  *(uint*)(mem+sp) = argc;
  100cf3:	89 44 0f f8          	mov    %eax,-0x8(%edi,%ecx,1)
  sp -= 4;
  *(uint*)(mem+sp) = 0xffffffff;   // fake return pc
  100cf7:	c7 44 0f f4 ff ff ff 	movl   $0xffffffff,-0xc(%edi,%ecx,1)
  100cfe:	ff 

  // Save program name for debugging.
  for(last=s=path; *s; s++)
  100cff:	8b 4d 08             	mov    0x8(%ebp),%ecx
  100d02:	0f b6 11             	movzbl (%ecx),%edx
  100d05:	89 cb                	mov    %ecx,%ebx
  100d07:	84 d2                	test   %dl,%dl
  100d09:	74 20                	je     100d2b <exec+0x33b>
  100d0b:	8b 45 08             	mov    0x8(%ebp),%eax
  100d0e:	8b 5d 08             	mov    0x8(%ebp),%ebx
  100d11:	83 c0 01             	add    $0x1,%eax
  100d14:	eb 0c                	jmp    100d22 <exec+0x332>
  100d16:	66 90                	xchg   %ax,%ax
  100d18:	0f b6 10             	movzbl (%eax),%edx
  100d1b:	83 c0 01             	add    $0x1,%eax
  100d1e:	84 d2                	test   %dl,%dl
  100d20:	74 09                	je     100d2b <exec+0x33b>
    if(*s == '/')
  100d22:	80 fa 2f             	cmp    $0x2f,%dl
  100d25:	75 f1                	jne    100d18 <exec+0x328>
  100d27:	89 c3                	mov    %eax,%ebx
  100d29:	eb ed                	jmp    100d18 <exec+0x328>
  100d2b:	90                   	nop    
  100d2c:	8d 74 26 00          	lea    0x0(%esi,%eiz,1),%esi
      last = s+1;
  safestrcpy(cp->name, last, sizeof(cp->name));
  100d30:	e8 8b 27 00 00       	call   1034c0 <curproc>
  100d35:	89 5c 24 04          	mov    %ebx,0x4(%esp)
  100d39:	c7 44 24 08 10 00 00 	movl   $0x10,0x8(%esp)
  100d40:	00 
  100d41:	05 88 00 00 00       	add    $0x88,%eax
  100d46:	89 04 24             	mov    %eax,(%esp)
  100d49:	e8 02 36 00 00       	call   104350 <safestrcpy>

  // Commit to the new image.
  kfree(cp->mem, cp->sz);
  100d4e:	e8 6d 27 00 00       	call   1034c0 <curproc>
  100d53:	8b 58 04             	mov    0x4(%eax),%ebx
  100d56:	e8 65 27 00 00       	call   1034c0 <curproc>
  100d5b:	89 5c 24 04          	mov    %ebx,0x4(%esp)
  100d5f:	8b 00                	mov    (%eax),%eax
  100d61:	89 04 24             	mov    %eax,(%esp)
  100d64:	e8 d7 16 00 00       	call   102440 <kfree>
  cp->mem = mem;
  100d69:	e8 52 27 00 00       	call   1034c0 <curproc>
  100d6e:	8b bd 78 ff ff ff    	mov    -0x88(%ebp),%edi
  100d74:	89 38                	mov    %edi,(%eax)
  cp->sz = sz;
  100d76:	e8 45 27 00 00       	call   1034c0 <curproc>
  100d7b:	8b 55 8c             	mov    -0x74(%ebp),%edx
  100d7e:	89 50 04             	mov    %edx,0x4(%eax)
  cp->tf->eip = elf.entry;  // main
  100d81:	e8 3a 27 00 00       	call   1034c0 <curproc>
  100d86:	8b 90 84 00 00 00    	mov    0x84(%eax),%edx
  100d8c:	8b 45 b8             	mov    -0x48(%ebp),%eax
  100d8f:	89 42 30             	mov    %eax,0x30(%edx)
  cp->tf->esp = sp;
  100d92:	e8 29 27 00 00       	call   1034c0 <curproc>
  100d97:	8b 80 84 00 00 00    	mov    0x84(%eax),%eax
  100d9d:	89 70 3c             	mov    %esi,0x3c(%eax)
  setupsegs(cp);
  100da0:	e8 1b 27 00 00       	call   1034c0 <curproc>
  100da5:	89 04 24             	mov    %eax,(%esp)
  100da8:	e8 93 2b 00 00       	call   103940 <setupsegs>
  100dad:	31 c0                	xor    %eax,%eax
  100daf:	e9 a6 fc ff ff       	jmp    100a5a <exec+0x6a>
  100db4:	90                   	nop    
  100db5:	90                   	nop    
  100db6:	90                   	nop    
  100db7:	90                   	nop    
  100db8:	90                   	nop    
  100db9:	90                   	nop    
  100dba:	90                   	nop    
  100dbb:	90                   	nop    
  100dbc:	90                   	nop    
  100dbd:	90                   	nop    
  100dbe:	90                   	nop    
  100dbf:	90                   	nop    

00100dc0 <filewrite>:
}

// Write to file f.  Addr is kernel address.
int
filewrite(struct file *f, char *addr, int n)
{
  100dc0:	55                   	push   %ebp
  100dc1:	89 e5                	mov    %esp,%ebp
  100dc3:	83 ec 28             	sub    $0x28,%esp
  100dc6:	89 5d f4             	mov    %ebx,-0xc(%ebp)
  100dc9:	8b 5d 08             	mov    0x8(%ebp),%ebx
  100dcc:	89 75 f8             	mov    %esi,-0x8(%ebp)
  100dcf:	8b 75 10             	mov    0x10(%ebp),%esi
  100dd2:	89 7d fc             	mov    %edi,-0x4(%ebp)
  100dd5:	8b 7d 0c             	mov    0xc(%ebp),%edi
  int r;

  if(f->writable == 0)
  100dd8:	80 7b 09 00          	cmpb   $0x0,0x9(%ebx)
  100ddc:	74 5a                	je     100e38 <filewrite+0x78>
    return -1;
  if(f->type == FD_PIPE)
  100dde:	8b 03                	mov    (%ebx),%eax
  100de0:	83 f8 02             	cmp    $0x2,%eax
  100de3:	74 5b                	je     100e40 <filewrite+0x80>
    return pipewrite(f->pipe, addr, n);
  if(f->type == FD_INODE){
  100de5:	83 f8 03             	cmp    $0x3,%eax
  100de8:	75 6d                	jne    100e57 <filewrite+0x97>
    ilock(f->ip);
  100dea:	8b 43 10             	mov    0x10(%ebx),%eax
  100ded:	89 04 24             	mov    %eax,(%esp)
  100df0:	e8 0b 0f 00 00       	call   101d00 <ilock>
    if((r = writei(f->ip, addr, f->off, n)) > 0)
  100df5:	89 74 24 0c          	mov    %esi,0xc(%esp)
  100df9:	8b 43 14             	mov    0x14(%ebx),%eax
  100dfc:	89 7c 24 04          	mov    %edi,0x4(%esp)
  100e00:	89 44 24 08          	mov    %eax,0x8(%esp)
  100e04:	8b 43 10             	mov    0x10(%ebx),%eax
  100e07:	89 04 24             	mov    %eax,(%esp)
  100e0a:	e8 11 08 00 00       	call   101620 <writei>
  100e0f:	85 c0                	test   %eax,%eax
  100e11:	89 c6                	mov    %eax,%esi
  100e13:	7e 03                	jle    100e18 <filewrite+0x58>
      f->off += r;
  100e15:	01 43 14             	add    %eax,0x14(%ebx)
    iunlock(f->ip);
  100e18:	8b 43 10             	mov    0x10(%ebx),%eax
  100e1b:	89 04 24             	mov    %eax,(%esp)
  100e1e:	e8 5d 0e 00 00       	call   101c80 <iunlock>
    return r;
  }
  panic("filewrite");
}
  100e23:	89 f0                	mov    %esi,%eax
  100e25:	8b 5d f4             	mov    -0xc(%ebp),%ebx
  100e28:	8b 75 f8             	mov    -0x8(%ebp),%esi
  100e2b:	8b 7d fc             	mov    -0x4(%ebp),%edi
  100e2e:	89 ec                	mov    %ebp,%esp
  100e30:	5d                   	pop    %ebp
  100e31:	c3                   	ret    
  100e32:	8d b6 00 00 00 00    	lea    0x0(%esi),%esi
    if((r = writei(f->ip, addr, f->off, n)) > 0)
      f->off += r;
    iunlock(f->ip);
    return r;
  }
  panic("filewrite");
  100e38:	be ff ff ff ff       	mov    $0xffffffff,%esi
  100e3d:	eb e4                	jmp    100e23 <filewrite+0x63>
  100e3f:	90                   	nop    
  int r;

  if(f->writable == 0)
    return -1;
  if(f->type == FD_PIPE)
    return pipewrite(f->pipe, addr, n);
  100e40:	8b 43 0c             	mov    0xc(%ebx),%eax
      f->off += r;
    iunlock(f->ip);
    return r;
  }
  panic("filewrite");
}
  100e43:	8b 75 f8             	mov    -0x8(%ebp),%esi
  100e46:	8b 5d f4             	mov    -0xc(%ebp),%ebx
  100e49:	8b 7d fc             	mov    -0x4(%ebp),%edi
  int r;

  if(f->writable == 0)
    return -1;
  if(f->type == FD_PIPE)
    return pipewrite(f->pipe, addr, n);
  100e4c:	89 45 08             	mov    %eax,0x8(%ebp)
      f->off += r;
    iunlock(f->ip);
    return r;
  }
  panic("filewrite");
}
  100e4f:	89 ec                	mov    %ebp,%esp
  100e51:	5d                   	pop    %ebp
  int r;

  if(f->writable == 0)
    return -1;
  if(f->type == FD_PIPE)
    return pipewrite(f->pipe, addr, n);
  100e52:	e9 39 21 00 00       	jmp    102f90 <pipewrite>
    if((r = writei(f->ip, addr, f->off, n)) > 0)
      f->off += r;
    iunlock(f->ip);
    return r;
  }
  panic("filewrite");
  100e57:	c7 04 24 0a 62 10 00 	movl   $0x10620a,(%esp)
  100e5e:	e8 0d fb ff ff       	call   100970 <panic>
  100e63:	8d b6 00 00 00 00    	lea    0x0(%esi),%esi
  100e69:	8d bc 27 00 00 00 00 	lea    0x0(%edi,%eiz,1),%edi

00100e70 <fileread>:
}

// Read from file f.  Addr is kernel address.
int
fileread(struct file *f, char *addr, int n)
{
  100e70:	55                   	push   %ebp
  100e71:	89 e5                	mov    %esp,%ebp
  100e73:	83 ec 28             	sub    $0x28,%esp
  100e76:	89 5d f4             	mov    %ebx,-0xc(%ebp)
  100e79:	8b 5d 08             	mov    0x8(%ebp),%ebx
  100e7c:	89 75 f8             	mov    %esi,-0x8(%ebp)
  100e7f:	8b 75 10             	mov    0x10(%ebp),%esi
  100e82:	89 7d fc             	mov    %edi,-0x4(%ebp)
  100e85:	8b 7d 0c             	mov    0xc(%ebp),%edi
  int r;

  if(f->readable == 0)
  100e88:	80 7b 08 00          	cmpb   $0x0,0x8(%ebx)
  100e8c:	74 5a                	je     100ee8 <fileread+0x78>
    return -1;
  if(f->type == FD_PIPE)
  100e8e:	8b 03                	mov    (%ebx),%eax
  100e90:	83 f8 02             	cmp    $0x2,%eax
  100e93:	74 5b                	je     100ef0 <fileread+0x80>
    return piperead(f->pipe, addr, n);
  if(f->type == FD_INODE){
  100e95:	83 f8 03             	cmp    $0x3,%eax
  100e98:	75 6d                	jne    100f07 <fileread+0x97>
    ilock(f->ip);
  100e9a:	8b 43 10             	mov    0x10(%ebx),%eax
  100e9d:	89 04 24             	mov    %eax,(%esp)
  100ea0:	e8 5b 0e 00 00       	call   101d00 <ilock>
    if((r = readi(f->ip, addr, f->off, n)) > 0)
  100ea5:	89 74 24 0c          	mov    %esi,0xc(%esp)
  100ea9:	8b 43 14             	mov    0x14(%ebx),%eax
  100eac:	89 7c 24 04          	mov    %edi,0x4(%esp)
  100eb0:	89 44 24 08          	mov    %eax,0x8(%esp)
  100eb4:	8b 43 10             	mov    0x10(%ebx),%eax
  100eb7:	89 04 24             	mov    %eax,(%esp)
  100eba:	e8 c1 05 00 00       	call   101480 <readi>
  100ebf:	85 c0                	test   %eax,%eax
  100ec1:	89 c6                	mov    %eax,%esi
  100ec3:	7e 03                	jle    100ec8 <fileread+0x58>
      f->off += r;
  100ec5:	01 43 14             	add    %eax,0x14(%ebx)
    iunlock(f->ip);
  100ec8:	8b 43 10             	mov    0x10(%ebx),%eax
  100ecb:	89 04 24             	mov    %eax,(%esp)
  100ece:	e8 ad 0d 00 00       	call   101c80 <iunlock>
    return r;
  }
  panic("fileread");
}
  100ed3:	89 f0                	mov    %esi,%eax
  100ed5:	8b 5d f4             	mov    -0xc(%ebp),%ebx
  100ed8:	8b 75 f8             	mov    -0x8(%ebp),%esi
  100edb:	8b 7d fc             	mov    -0x4(%ebp),%edi
  100ede:	89 ec                	mov    %ebp,%esp
  100ee0:	5d                   	pop    %ebp
  100ee1:	c3                   	ret    
  100ee2:	8d b6 00 00 00 00    	lea    0x0(%esi),%esi
    if((r = readi(f->ip, addr, f->off, n)) > 0)
      f->off += r;
    iunlock(f->ip);
    return r;
  }
  panic("fileread");
  100ee8:	be ff ff ff ff       	mov    $0xffffffff,%esi
  100eed:	eb e4                	jmp    100ed3 <fileread+0x63>
  100eef:	90                   	nop    
  int r;

  if(f->readable == 0)
    return -1;
  if(f->type == FD_PIPE)
    return piperead(f->pipe, addr, n);
  100ef0:	8b 43 0c             	mov    0xc(%ebx),%eax
      f->off += r;
    iunlock(f->ip);
    return r;
  }
  panic("fileread");
}
  100ef3:	8b 75 f8             	mov    -0x8(%ebp),%esi
  100ef6:	8b 5d f4             	mov    -0xc(%ebp),%ebx
  100ef9:	8b 7d fc             	mov    -0x4(%ebp),%edi
  int r;

  if(f->readable == 0)
    return -1;
  if(f->type == FD_PIPE)
    return piperead(f->pipe, addr, n);
  100efc:	89 45 08             	mov    %eax,0x8(%ebp)
      f->off += r;
    iunlock(f->ip);
    return r;
  }
  panic("fileread");
}
  100eff:	89 ec                	mov    %ebp,%esp
  100f01:	5d                   	pop    %ebp
  int r;

  if(f->readable == 0)
    return -1;
  if(f->type == FD_PIPE)
    return piperead(f->pipe, addr, n);
  100f02:	e9 a9 1f 00 00       	jmp    102eb0 <piperead>
    if((r = readi(f->ip, addr, f->off, n)) > 0)
      f->off += r;
    iunlock(f->ip);
    return r;
  }
  panic("fileread");
  100f07:	c7 04 24 14 62 10 00 	movl   $0x106214,(%esp)
  100f0e:	e8 5d fa ff ff       	call   100970 <panic>
  100f13:	8d b6 00 00 00 00    	lea    0x0(%esi),%esi
  100f19:	8d bc 27 00 00 00 00 	lea    0x0(%edi,%eiz,1),%edi

00100f20 <filestat>:
}

// Get metadata about file f.
int
filestat(struct file *f, struct stat *st)
{
  100f20:	55                   	push   %ebp
  if(f->type == FD_INODE){
  100f21:	b8 ff ff ff ff       	mov    $0xffffffff,%eax
}

// Get metadata about file f.
int
filestat(struct file *f, struct stat *st)
{
  100f26:	89 e5                	mov    %esp,%ebp
  100f28:	53                   	push   %ebx
  100f29:	83 ec 14             	sub    $0x14,%esp
  100f2c:	8b 5d 08             	mov    0x8(%ebp),%ebx
  if(f->type == FD_INODE){
  100f2f:	83 3b 03             	cmpl   $0x3,(%ebx)
  100f32:	74 0c                	je     100f40 <filestat+0x20>
    stati(f->ip, st);
    iunlock(f->ip);
    return 0;
  }
  return -1;
}
  100f34:	83 c4 14             	add    $0x14,%esp
  100f37:	5b                   	pop    %ebx
  100f38:	5d                   	pop    %ebp
  100f39:	c3                   	ret    
  100f3a:	8d b6 00 00 00 00    	lea    0x0(%esi),%esi
// Get metadata about file f.
int
filestat(struct file *f, struct stat *st)
{
  if(f->type == FD_INODE){
    ilock(f->ip);
  100f40:	8b 43 10             	mov    0x10(%ebx),%eax
  100f43:	89 04 24             	mov    %eax,(%esp)
  100f46:	e8 b5 0d 00 00       	call   101d00 <ilock>
    stati(f->ip, st);
  100f4b:	8b 45 0c             	mov    0xc(%ebp),%eax
  100f4e:	89 44 24 04          	mov    %eax,0x4(%esp)
  100f52:	8b 43 10             	mov    0x10(%ebx),%eax
  100f55:	89 04 24             	mov    %eax,(%esp)
  100f58:	e8 d3 01 00 00       	call   101130 <stati>
    iunlock(f->ip);
  100f5d:	8b 43 10             	mov    0x10(%ebx),%eax
  100f60:	89 04 24             	mov    %eax,(%esp)
  100f63:	e8 18 0d 00 00       	call   101c80 <iunlock>
    return 0;
  }
  return -1;
}
  100f68:	83 c4 14             	add    $0x14,%esp
filestat(struct file *f, struct stat *st)
{
  if(f->type == FD_INODE){
    ilock(f->ip);
    stati(f->ip, st);
    iunlock(f->ip);
  100f6b:	31 c0                	xor    %eax,%eax
    return 0;
  }
  return -1;
}
  100f6d:	5b                   	pop    %ebx
  100f6e:	5d                   	pop    %ebp
  100f6f:	c3                   	ret    

00100f70 <filedup>:
}

// Increment ref count for file f.
struct file*
filedup(struct file *f)
{
  100f70:	55                   	push   %ebp
  100f71:	89 e5                	mov    %esp,%ebp
  100f73:	53                   	push   %ebx
  100f74:	83 ec 04             	sub    $0x4,%esp
  100f77:	8b 5d 08             	mov    0x8(%ebp),%ebx
  acquire(&file_table_lock);
  100f7a:	c7 04 24 e0 a2 10 00 	movl   $0x10a2e0,(%esp)
  100f81:	e8 ba 31 00 00       	call   104140 <acquire>
  if(f->ref < 1 || f->type == FD_CLOSED)
  100f86:	8b 43 04             	mov    0x4(%ebx),%eax
  100f89:	85 c0                	test   %eax,%eax
  100f8b:	7e 06                	jle    100f93 <filedup+0x23>
  100f8d:	8b 13                	mov    (%ebx),%edx
  100f8f:	85 d2                	test   %edx,%edx
  100f91:	75 0d                	jne    100fa0 <filedup+0x30>
    panic("filedup");
  100f93:	c7 04 24 1d 62 10 00 	movl   $0x10621d,(%esp)
  100f9a:	e8 d1 f9 ff ff       	call   100970 <panic>
  100f9f:	90                   	nop    
  f->ref++;
  100fa0:	83 c0 01             	add    $0x1,%eax
  100fa3:	89 43 04             	mov    %eax,0x4(%ebx)
  release(&file_table_lock);
  100fa6:	c7 04 24 e0 a2 10 00 	movl   $0x10a2e0,(%esp)
  100fad:	e8 4e 31 00 00       	call   104100 <release>
  return f;
}
  100fb2:	89 d8                	mov    %ebx,%eax
  100fb4:	83 c4 04             	add    $0x4,%esp
  100fb7:	5b                   	pop    %ebx
  100fb8:	5d                   	pop    %ebp
  100fb9:	c3                   	ret    
  100fba:	8d b6 00 00 00 00    	lea    0x0(%esi),%esi

00100fc0 <filealloc>:
}

// Allocate a file structure.
struct file*
filealloc(void)
{
  100fc0:	55                   	push   %ebp
  100fc1:	89 e5                	mov    %esp,%ebp
  100fc3:	53                   	push   %ebx
  100fc4:	83 ec 04             	sub    $0x4,%esp
  int i;

  acquire(&file_table_lock);
  100fc7:	c7 04 24 e0 a2 10 00 	movl   $0x10a2e0,(%esp)
  100fce:	e8 6d 31 00 00       	call   104140 <acquire>
  100fd3:	ba 80 99 10 00       	mov    $0x109980,%edx
  100fd8:	31 c0                	xor    %eax,%eax
  100fda:	eb 0f                	jmp    100feb <filealloc+0x2b>
  100fdc:	8d 74 26 00          	lea    0x0(%esi,%eiz,1),%esi
  for(i = 0; i < NFILE; i++){
  100fe0:	83 c0 01             	add    $0x1,%eax
  100fe3:	83 c2 18             	add    $0x18,%edx
  100fe6:	83 f8 64             	cmp    $0x64,%eax
  100fe9:	74 3d                	je     101028 <filealloc+0x68>
    if(file[i].type == FD_CLOSED){
  100feb:	8b 0a                	mov    (%edx),%ecx
  100fed:	85 c9                	test   %ecx,%ecx
  100fef:	75 ef                	jne    100fe0 <filealloc+0x20>
      file[i].type = FD_NONE;
  100ff1:	8d 04 40             	lea    (%eax,%eax,2),%eax
  100ff4:	8d 1c c5 00 00 00 00 	lea    0x0(,%eax,8),%ebx
  100ffb:	c7 04 c5 80 99 10 00 	movl   $0x1,0x109980(,%eax,8)
  101002:	01 00 00 00 
      file[i].ref = 1;
  101006:	c7 83 84 99 10 00 01 	movl   $0x1,0x109984(%ebx)
  10100d:	00 00 00 
      release(&file_table_lock);
  101010:	c7 04 24 e0 a2 10 00 	movl   $0x10a2e0,(%esp)
  101017:	e8 e4 30 00 00       	call   104100 <release>
      return file + i;
  10101c:	8d 83 80 99 10 00    	lea    0x109980(%ebx),%eax
    }
  }
  release(&file_table_lock);
  return 0;
}
  101022:	83 c4 04             	add    $0x4,%esp
  101025:	5b                   	pop    %ebx
  101026:	5d                   	pop    %ebp
  101027:	c3                   	ret    
      file[i].ref = 1;
      release(&file_table_lock);
      return file + i;
    }
  }
  release(&file_table_lock);
  101028:	c7 04 24 e0 a2 10 00 	movl   $0x10a2e0,(%esp)
  10102f:	e8 cc 30 00 00       	call   104100 <release>
  return 0;
}
  101034:	83 c4 04             	add    $0x4,%esp
      file[i].ref = 1;
      release(&file_table_lock);
      return file + i;
    }
  }
  release(&file_table_lock);
  101037:	31 c0                	xor    %eax,%eax
  return 0;
}
  101039:	5b                   	pop    %ebx
  10103a:	5d                   	pop    %ebp
  10103b:	c3                   	ret    
  10103c:	8d 74 26 00          	lea    0x0(%esi,%eiz,1),%esi

00101040 <fileclose>:
}

// Close file f.  (Decrement ref count, close when reaches 0.)
void
fileclose(struct file *f)
{
  101040:	55                   	push   %ebp
  101041:	89 e5                	mov    %esp,%ebp
  101043:	83 ec 28             	sub    $0x28,%esp
  101046:	89 5d f4             	mov    %ebx,-0xc(%ebp)
  101049:	8b 5d 08             	mov    0x8(%ebp),%ebx
  10104c:	89 75 f8             	mov    %esi,-0x8(%ebp)
  10104f:	89 7d fc             	mov    %edi,-0x4(%ebp)
  struct file ff;

  acquire(&file_table_lock);
  101052:	c7 04 24 e0 a2 10 00 	movl   $0x10a2e0,(%esp)
  101059:	e8 e2 30 00 00       	call   104140 <acquire>
  if(f->ref < 1 || f->type == FD_CLOSED)
  10105e:	8b 43 04             	mov    0x4(%ebx),%eax
  101061:	85 c0                	test   %eax,%eax
  101063:	7e 2b                	jle    101090 <fileclose+0x50>
  101065:	8b 33                	mov    (%ebx),%esi
  101067:	85 f6                	test   %esi,%esi
  101069:	74 25                	je     101090 <fileclose+0x50>
    panic("fileclose");
  if(--f->ref > 0){
  10106b:	83 e8 01             	sub    $0x1,%eax
  10106e:	85 c0                	test   %eax,%eax
  101070:	89 43 04             	mov    %eax,0x4(%ebx)
  101073:	74 2b                	je     1010a0 <fileclose+0x60>
    release(&file_table_lock);
  101075:	c7 45 08 e0 a2 10 00 	movl   $0x10a2e0,0x8(%ebp)
    pipeclose(ff.pipe, ff.writable);
  else if(ff.type == FD_INODE)
    iput(ff.ip);
  else
    panic("fileclose");
}
  10107c:	8b 5d f4             	mov    -0xc(%ebp),%ebx
  10107f:	8b 75 f8             	mov    -0x8(%ebp),%esi
  101082:	8b 7d fc             	mov    -0x4(%ebp),%edi
  101085:	89 ec                	mov    %ebp,%esp
  101087:	5d                   	pop    %ebp

  acquire(&file_table_lock);
  if(f->ref < 1 || f->type == FD_CLOSED)
    panic("fileclose");
  if(--f->ref > 0){
    release(&file_table_lock);
  101088:	e9 73 30 00 00       	jmp    104100 <release>
  10108d:	8d 76 00             	lea    0x0(%esi),%esi
  if(ff.type == FD_PIPE)
    pipeclose(ff.pipe, ff.writable);
  else if(ff.type == FD_INODE)
    iput(ff.ip);
  else
    panic("fileclose");
  101090:	c7 04 24 25 62 10 00 	movl   $0x106225,(%esp)
  101097:	e8 d4 f8 ff ff       	call   100970 <panic>
  10109c:	8d 74 26 00          	lea    0x0(%esi,%eiz,1),%esi
    panic("fileclose");
  if(--f->ref > 0){
    release(&file_table_lock);
    return;
  }
  ff = *f;
  1010a0:	8b 43 0c             	mov    0xc(%ebx),%eax
  1010a3:	8b 33                	mov    (%ebx),%esi
  1010a5:	8b 7b 10             	mov    0x10(%ebx),%edi
  f->ref = 0;
  1010a8:	c7 43 04 00 00 00 00 	movl   $0x0,0x4(%ebx)
    panic("fileclose");
  if(--f->ref > 0){
    release(&file_table_lock);
    return;
  }
  ff = *f;
  1010af:	89 45 ec             	mov    %eax,-0x14(%ebp)
  1010b2:	0f b6 43 09          	movzbl 0x9(%ebx),%eax
  f->ref = 0;
  f->type = FD_CLOSED;
  1010b6:	c7 03 00 00 00 00    	movl   $0x0,(%ebx)
    panic("fileclose");
  if(--f->ref > 0){
    release(&file_table_lock);
    return;
  }
  ff = *f;
  1010bc:	88 45 f3             	mov    %al,-0xd(%ebp)
  f->ref = 0;
  f->type = FD_CLOSED;
  release(&file_table_lock);
  1010bf:	c7 04 24 e0 a2 10 00 	movl   $0x10a2e0,(%esp)
  1010c6:	e8 35 30 00 00       	call   104100 <release>
  
  if(ff.type == FD_PIPE)
  1010cb:	83 fe 02             	cmp    $0x2,%esi
  1010ce:	74 20                	je     1010f0 <fileclose+0xb0>
    pipeclose(ff.pipe, ff.writable);
  else if(ff.type == FD_INODE)
  1010d0:	83 fe 03             	cmp    $0x3,%esi
  1010d3:	75 bb                	jne    101090 <fileclose+0x50>
    iput(ff.ip);
  1010d5:	89 7d 08             	mov    %edi,0x8(%ebp)
  else
    panic("fileclose");
}
  1010d8:	8b 5d f4             	mov    -0xc(%ebp),%ebx
  1010db:	8b 75 f8             	mov    -0x8(%ebp),%esi
  1010de:	8b 7d fc             	mov    -0x4(%ebp),%edi
  1010e1:	89 ec                	mov    %ebp,%esp
  1010e3:	5d                   	pop    %ebp
  release(&file_table_lock);
  
  if(ff.type == FD_PIPE)
    pipeclose(ff.pipe, ff.writable);
  else if(ff.type == FD_INODE)
    iput(ff.ip);
  1010e4:	e9 47 09 00 00       	jmp    101a30 <iput>
  1010e9:	8d b4 26 00 00 00 00 	lea    0x0(%esi,%eiz,1),%esi
  f->ref = 0;
  f->type = FD_CLOSED;
  release(&file_table_lock);
  
  if(ff.type == FD_PIPE)
    pipeclose(ff.pipe, ff.writable);
  1010f0:	0f be 45 f3          	movsbl -0xd(%ebp),%eax
  1010f4:	89 44 24 04          	mov    %eax,0x4(%esp)
  1010f8:	8b 45 ec             	mov    -0x14(%ebp),%eax
  1010fb:	89 04 24             	mov    %eax,(%esp)
  1010fe:	e8 8d 1f 00 00       	call   103090 <pipeclose>
  else if(ff.type == FD_INODE)
    iput(ff.ip);
  else
    panic("fileclose");
}
  101103:	8b 5d f4             	mov    -0xc(%ebp),%ebx
  101106:	8b 75 f8             	mov    -0x8(%ebp),%esi
  101109:	8b 7d fc             	mov    -0x4(%ebp),%edi
  10110c:	89 ec                	mov    %ebp,%esp
  10110e:	5d                   	pop    %ebp
  10110f:	c3                   	ret    

00101110 <fileinit>:
struct spinlock file_table_lock;
struct file file[NFILE];

void
fileinit(void)
{
  101110:	55                   	push   %ebp
  101111:	89 e5                	mov    %esp,%ebp
  101113:	83 ec 08             	sub    $0x8,%esp
  initlock(&file_table_lock, "file_table");
  101116:	c7 44 24 04 2f 62 10 	movl   $0x10622f,0x4(%esp)
  10111d:	00 
  10111e:	c7 04 24 e0 a2 10 00 	movl   $0x10a2e0,(%esp)
  101125:	e8 46 2e 00 00       	call   103f70 <initlock>
}
  10112a:	c9                   	leave  
  10112b:	c3                   	ret    
  10112c:	90                   	nop    
  10112d:	90                   	nop    
  10112e:	90                   	nop    
  10112f:	90                   	nop    

00101130 <stati>:
}

// Copy stat information from inode.
void
stati(struct inode *ip, struct stat *st)
{
  101130:	55                   	push   %ebp
  101131:	89 e5                	mov    %esp,%ebp
  101133:	8b 55 08             	mov    0x8(%ebp),%edx
  101136:	8b 4d 0c             	mov    0xc(%ebp),%ecx
  st->dev = ip->dev;
  101139:	8b 02                	mov    (%edx),%eax
  10113b:	89 01                	mov    %eax,(%ecx)
  st->ino = ip->inum;
  10113d:	8b 42 04             	mov    0x4(%edx),%eax
  101140:	89 41 04             	mov    %eax,0x4(%ecx)
  st->type = ip->type;
  101143:	0f b7 42 10          	movzwl 0x10(%edx),%eax
  101147:	66 89 41 08          	mov    %ax,0x8(%ecx)
  st->nlink = ip->nlink;
  10114b:	0f b7 42 16          	movzwl 0x16(%edx),%eax
  10114f:	66 89 41 0a          	mov    %ax,0xa(%ecx)
  st->size = ip->size;
  101153:	8b 42 18             	mov    0x18(%edx),%eax
  101156:	89 41 0c             	mov    %eax,0xc(%ecx)
}
  101159:	5d                   	pop    %ebp
  10115a:	c3                   	ret    
  10115b:	90                   	nop    
  10115c:	8d 74 26 00          	lea    0x0(%esi,%eiz,1),%esi

00101160 <idup>:

// Increment reference count for ip.
// Returns ip to enable ip = idup(ip1) idiom.
struct inode*
idup(struct inode *ip)
{
  101160:	55                   	push   %ebp
  101161:	89 e5                	mov    %esp,%ebp
  101163:	53                   	push   %ebx
  101164:	83 ec 04             	sub    $0x4,%esp
  101167:	8b 5d 08             	mov    0x8(%ebp),%ebx
  acquire(&icache.lock);
  10116a:	c7 04 24 80 a3 10 00 	movl   $0x10a380,(%esp)
  101171:	e8 ca 2f 00 00       	call   104140 <acquire>
  ip->ref++;
  101176:	83 43 08 01          	addl   $0x1,0x8(%ebx)
  release(&icache.lock);
  10117a:	c7 04 24 80 a3 10 00 	movl   $0x10a380,(%esp)
  101181:	e8 7a 2f 00 00       	call   104100 <release>
  return ip;
}
  101186:	89 d8                	mov    %ebx,%eax
  101188:	83 c4 04             	add    $0x4,%esp
  10118b:	5b                   	pop    %ebx
  10118c:	5d                   	pop    %ebp
  10118d:	c3                   	ret    
  10118e:	66 90                	xchg   %ax,%ax

00101190 <iget>:

// Find the inode with number inum on device dev
// and return the in-memory copy.
static struct inode*
iget(uint dev, uint inum)
{
  101190:	55                   	push   %ebp
  101191:	89 e5                	mov    %esp,%ebp
  101193:	57                   	push   %edi
  101194:	89 c7                	mov    %eax,%edi
  101196:	56                   	push   %esi
  struct inode *ip, *empty;

  acquire(&icache.lock);
  101197:	31 f6                	xor    %esi,%esi

// Find the inode with number inum on device dev
// and return the in-memory copy.
static struct inode*
iget(uint dev, uint inum)
{
  101199:	53                   	push   %ebx
  struct inode *ip, *empty;

  acquire(&icache.lock);
  10119a:	bb b4 a3 10 00       	mov    $0x10a3b4,%ebx

// Find the inode with number inum on device dev
// and return the in-memory copy.
static struct inode*
iget(uint dev, uint inum)
{
  10119f:	83 ec 0c             	sub    $0xc,%esp
  1011a2:	89 55 f0             	mov    %edx,-0x10(%ebp)
  struct inode *ip, *empty;

  acquire(&icache.lock);
  1011a5:	c7 04 24 80 a3 10 00 	movl   $0x10a380,(%esp)
  1011ac:	e8 8f 2f 00 00       	call   104140 <acquire>
  1011b1:	eb 17                	jmp    1011ca <iget+0x3a>
  1011b3:	90                   	nop    
  1011b4:	8d 74 26 00          	lea    0x0(%esi,%eiz,1),%esi
    if(ip->ref > 0 && ip->dev == dev && ip->inum == inum){
      ip->ref++;
      release(&icache.lock);
      return ip;
    }
    if(empty == 0 && ip->ref == 0)    // Remember empty slot.
  1011b8:	85 f6                	test   %esi,%esi
  1011ba:	74 44                	je     101200 <iget+0x70>

  acquire(&icache.lock);

  // Try for cached inode.
  empty = 0;
  for(ip = &icache.inode[0]; ip < &icache.inode[NINODE]; ip++){
  1011bc:	83 c3 50             	add    $0x50,%ebx
  1011bf:	81 fb 54 b3 10 00    	cmp    $0x10b354,%ebx
  1011c5:	8d 76 00             	lea    0x0(%esi),%esi
  1011c8:	74 4e                	je     101218 <iget+0x88>
    if(ip->ref > 0 && ip->dev == dev && ip->inum == inum){
  1011ca:	8b 43 08             	mov    0x8(%ebx),%eax
  1011cd:	85 c0                	test   %eax,%eax
  1011cf:	7e e7                	jle    1011b8 <iget+0x28>
  1011d1:	39 3b                	cmp    %edi,(%ebx)
  1011d3:	75 e3                	jne    1011b8 <iget+0x28>
  1011d5:	8b 55 f0             	mov    -0x10(%ebp),%edx
  1011d8:	39 53 04             	cmp    %edx,0x4(%ebx)
  1011db:	75 db                	jne    1011b8 <iget+0x28>
      ip->ref++;
  1011dd:	83 c0 01             	add    $0x1,%eax
  1011e0:	89 43 08             	mov    %eax,0x8(%ebx)
      release(&icache.lock);
  1011e3:	c7 04 24 80 a3 10 00 	movl   $0x10a380,(%esp)
  1011ea:	e8 11 2f 00 00       	call   104100 <release>
  ip->ref = 1;
  ip->flags = 0;
  release(&icache.lock);

  return ip;
}
  1011ef:	83 c4 0c             	add    $0xc,%esp
  1011f2:	89 d8                	mov    %ebx,%eax
  1011f4:	5b                   	pop    %ebx
  1011f5:	5e                   	pop    %esi
  1011f6:	5f                   	pop    %edi
  1011f7:	5d                   	pop    %ebp
  1011f8:	c3                   	ret    
  1011f9:	8d b4 26 00 00 00 00 	lea    0x0(%esi,%eiz,1),%esi
    if(ip->ref > 0 && ip->dev == dev && ip->inum == inum){
      ip->ref++;
      release(&icache.lock);
      return ip;
    }
    if(empty == 0 && ip->ref == 0)    // Remember empty slot.
  101200:	85 c0                	test   %eax,%eax
  101202:	75 b8                	jne    1011bc <iget+0x2c>
  101204:	89 de                	mov    %ebx,%esi

  acquire(&icache.lock);

  // Try for cached inode.
  empty = 0;
  for(ip = &icache.inode[0]; ip < &icache.inode[NINODE]; ip++){
  101206:	83 c3 50             	add    $0x50,%ebx
  101209:	81 fb 54 b3 10 00    	cmp    $0x10b354,%ebx
  10120f:	75 b9                	jne    1011ca <iget+0x3a>
  101211:	8d b4 26 00 00 00 00 	lea    0x0(%esi,%eiz,1),%esi
    if(empty == 0 && ip->ref == 0)    // Remember empty slot.
      empty = ip;
  }

  // Allocate fresh inode.
  if(empty == 0)
  101218:	85 f6                	test   %esi,%esi
  10121a:	74 2e                	je     10124a <iget+0xba>
    panic("iget: no inodes");

  ip = empty;
  ip->dev = dev;
  ip->inum = inum;
  10121c:	8b 45 f0             	mov    -0x10(%ebp),%eax
  ip->ref = 1;
  ip->flags = 0;
  release(&icache.lock);
  10121f:	89 f3                	mov    %esi,%ebx
  // Allocate fresh inode.
  if(empty == 0)
    panic("iget: no inodes");

  ip = empty;
  ip->dev = dev;
  101221:	89 3e                	mov    %edi,(%esi)
  ip->inum = inum;
  ip->ref = 1;
  101223:	c7 46 08 01 00 00 00 	movl   $0x1,0x8(%esi)
  ip->flags = 0;
  10122a:	c7 46 0c 00 00 00 00 	movl   $0x0,0xc(%esi)
  if(empty == 0)
    panic("iget: no inodes");

  ip = empty;
  ip->dev = dev;
  ip->inum = inum;
  101231:	89 46 04             	mov    %eax,0x4(%esi)
  ip->ref = 1;
  ip->flags = 0;
  release(&icache.lock);
  101234:	c7 04 24 80 a3 10 00 	movl   $0x10a380,(%esp)
  10123b:	e8 c0 2e 00 00       	call   104100 <release>

  return ip;
}
  101240:	83 c4 0c             	add    $0xc,%esp
  101243:	89 d8                	mov    %ebx,%eax
  101245:	5b                   	pop    %ebx
  101246:	5e                   	pop    %esi
  101247:	5f                   	pop    %edi
  101248:	5d                   	pop    %ebp
  101249:	c3                   	ret    
      empty = ip;
  }

  // Allocate fresh inode.
  if(empty == 0)
    panic("iget: no inodes");
  10124a:	c7 04 24 3a 62 10 00 	movl   $0x10623a,(%esp)
  101251:	e8 1a f7 ff ff       	call   100970 <panic>
  101256:	8d 76 00             	lea    0x0(%esi),%esi
  101259:	8d bc 27 00 00 00 00 	lea    0x0(%edi,%eiz,1),%edi

00101260 <readsb>:
static void itrunc(struct inode*);

// Read the super block.
static void
readsb(int dev, struct superblock *sb)
{
  101260:	55                   	push   %ebp
  101261:	89 e5                	mov    %esp,%ebp
  101263:	83 ec 18             	sub    $0x18,%esp
  struct buf *bp;
  
  bp = bread(dev, 1);
  101266:	c7 44 24 04 01 00 00 	movl   $0x1,0x4(%esp)
  10126d:	00 
static void itrunc(struct inode*);

// Read the super block.
static void
readsb(int dev, struct superblock *sb)
{
  10126e:	89 5d f8             	mov    %ebx,-0x8(%ebp)
  101271:	89 75 fc             	mov    %esi,-0x4(%ebp)
  101274:	89 d6                	mov    %edx,%esi
  struct buf *bp;
  
  bp = bread(dev, 1);
  101276:	89 04 24             	mov    %eax,(%esp)
  101279:	e8 32 ee ff ff       	call   1000b0 <bread>
  memmove(sb, bp->data, sizeof(*sb));
  10127e:	89 34 24             	mov    %esi,(%esp)
  101281:	c7 44 24 08 0c 00 00 	movl   $0xc,0x8(%esp)
  101288:	00 
static void
readsb(int dev, struct superblock *sb)
{
  struct buf *bp;
  
  bp = bread(dev, 1);
  101289:	89 c3                	mov    %eax,%ebx
  memmove(sb, bp->data, sizeof(*sb));
  10128b:	8d 40 18             	lea    0x18(%eax),%eax
  10128e:	89 44 24 04          	mov    %eax,0x4(%esp)
  101292:	e8 a9 2f 00 00       	call   104240 <memmove>
  brelse(bp);
  101297:	89 1c 24             	mov    %ebx,(%esp)
  10129a:	e8 61 ed ff ff       	call   100000 <brelse>
}
  10129f:	8b 5d f8             	mov    -0x8(%ebp),%ebx
  1012a2:	8b 75 fc             	mov    -0x4(%ebp),%esi
  1012a5:	89 ec                	mov    %ebp,%esp
  1012a7:	5d                   	pop    %ebp
  1012a8:	c3                   	ret    
  1012a9:	8d b4 26 00 00 00 00 	lea    0x0(%esi,%eiz,1),%esi

001012b0 <balloc>:
// Blocks. 

// Allocate a disk block.
static uint
balloc(uint dev)
{
  1012b0:	55                   	push   %ebp
  1012b1:	89 e5                	mov    %esp,%ebp
  1012b3:	57                   	push   %edi
  1012b4:	56                   	push   %esi
  1012b5:	53                   	push   %ebx
  1012b6:	83 ec 2c             	sub    $0x2c,%esp
  int b, bi, m;
  struct buf *bp;
  struct superblock sb;

  bp = 0;
  readsb(dev, &sb);
  1012b9:	8d 55 e8             	lea    -0x18(%ebp),%edx
// Blocks. 

// Allocate a disk block.
static uint
balloc(uint dev)
{
  1012bc:	89 45 dc             	mov    %eax,-0x24(%ebp)
  int b, bi, m;
  struct buf *bp;
  struct superblock sb;

  bp = 0;
  readsb(dev, &sb);
  1012bf:	e8 9c ff ff ff       	call   101260 <readsb>
  for(b = 0; b < sb.size; b += BPB){
  1012c4:	8b 45 e8             	mov    -0x18(%ebp),%eax
  1012c7:	85 c0                	test   %eax,%eax
  1012c9:	0f 84 9c 00 00 00    	je     10136b <balloc+0xbb>
  1012cf:	c7 45 e0 00 00 00 00 	movl   $0x0,-0x20(%ebp)
    bp = bread(dev, BBLOCK(b, sb.ninodes));
  1012d6:	8b 45 f0             	mov    -0x10(%ebp),%eax
  1012d9:	31 db                	xor    %ebx,%ebx
  1012db:	8b 55 e0             	mov    -0x20(%ebp),%edx
  1012de:	c1 e8 03             	shr    $0x3,%eax
  1012e1:	c1 fa 0c             	sar    $0xc,%edx
  1012e4:	8d 44 10 03          	lea    0x3(%eax,%edx,1),%eax
  1012e8:	89 44 24 04          	mov    %eax,0x4(%esp)
  1012ec:	8b 45 dc             	mov    -0x24(%ebp),%eax
  1012ef:	89 04 24             	mov    %eax,(%esp)
  1012f2:	e8 b9 ed ff ff       	call   1000b0 <bread>
  1012f7:	89 c7                	mov    %eax,%edi
  1012f9:	eb 10                	jmp    10130b <balloc+0x5b>
  1012fb:	90                   	nop    
  1012fc:	8d 74 26 00          	lea    0x0(%esi,%eiz,1),%esi
    for(bi = 0; bi < BPB; bi++){
  101300:	83 c3 01             	add    $0x1,%ebx
  101303:	81 fb 00 10 00 00    	cmp    $0x1000,%ebx
  101309:	74 45                	je     101350 <balloc+0xa0>
      m = 1 << (bi % 8);
  10130b:	89 d9                	mov    %ebx,%ecx
  10130d:	ba 01 00 00 00       	mov    $0x1,%edx
  101312:	83 e1 07             	and    $0x7,%ecx
      if((bp->data[bi/8] & m) == 0){  // Is block free?
  101315:	89 de                	mov    %ebx,%esi
  bp = 0;
  readsb(dev, &sb);
  for(b = 0; b < sb.size; b += BPB){
    bp = bread(dev, BBLOCK(b, sb.ninodes));
    for(bi = 0; bi < BPB; bi++){
      m = 1 << (bi % 8);
  101317:	d3 e2                	shl    %cl,%edx
      if((bp->data[bi/8] & m) == 0){  // Is block free?
  101319:	c1 fe 03             	sar    $0x3,%esi
  bp = 0;
  readsb(dev, &sb);
  for(b = 0; b < sb.size; b += BPB){
    bp = bread(dev, BBLOCK(b, sb.ninodes));
    for(bi = 0; bi < BPB; bi++){
      m = 1 << (bi % 8);
  10131c:	89 d1                	mov    %edx,%ecx
      if((bp->data[bi/8] & m) == 0){  // Is block free?
  10131e:	0f b6 54 37 18       	movzbl 0x18(%edi,%esi,1),%edx
  101323:	0f b6 c2             	movzbl %dl,%eax
  101326:	85 c8                	test   %ecx,%eax
  101328:	75 d6                	jne    101300 <balloc+0x50>
        bp->data[bi/8] |= m;  // Mark block in use on disk.
  10132a:	09 ca                	or     %ecx,%edx
  10132c:	88 54 37 18          	mov    %dl,0x18(%edi,%esi,1)
        bwrite(bp);
  101330:	89 3c 24             	mov    %edi,(%esp)
  101333:	e8 48 ed ff ff       	call   100080 <bwrite>
        brelse(bp);
  101338:	89 3c 24             	mov    %edi,(%esp)
  10133b:	e8 c0 ec ff ff       	call   100000 <brelse>
  101340:	8b 55 e0             	mov    -0x20(%ebp),%edx
      }
    }
    brelse(bp);
  }
  panic("balloc: out of blocks");
}
  101343:	83 c4 2c             	add    $0x2c,%esp
    for(bi = 0; bi < BPB; bi++){
      m = 1 << (bi % 8);
      if((bp->data[bi/8] & m) == 0){  // Is block free?
        bp->data[bi/8] |= m;  // Mark block in use on disk.
        bwrite(bp);
        brelse(bp);
  101346:	8d 04 13             	lea    (%ebx,%edx,1),%eax
      }
    }
    brelse(bp);
  }
  panic("balloc: out of blocks");
}
  101349:	5b                   	pop    %ebx
  10134a:	5e                   	pop    %esi
  10134b:	5f                   	pop    %edi
  10134c:	5d                   	pop    %ebp
  10134d:	c3                   	ret    
  10134e:	66 90                	xchg   %ax,%ax
        bwrite(bp);
        brelse(bp);
        return b + bi;
      }
    }
    brelse(bp);
  101350:	89 3c 24             	mov    %edi,(%esp)
  101353:	e8 a8 ec ff ff       	call   100000 <brelse>
  struct buf *bp;
  struct superblock sb;

  bp = 0;
  readsb(dev, &sb);
  for(b = 0; b < sb.size; b += BPB){
  101358:	81 45 e0 00 10 00 00 	addl   $0x1000,-0x20(%ebp)
  10135f:	8b 45 e0             	mov    -0x20(%ebp),%eax
  101362:	39 45 e8             	cmp    %eax,-0x18(%ebp)
  101365:	0f 87 6b ff ff ff    	ja     1012d6 <balloc+0x26>
        return b + bi;
      }
    }
    brelse(bp);
  }
  panic("balloc: out of blocks");
  10136b:	c7 04 24 4a 62 10 00 	movl   $0x10624a,(%esp)
  101372:	e8 f9 f5 ff ff       	call   100970 <panic>
  101377:	89 f6                	mov    %esi,%esi
  101379:	8d bc 27 00 00 00 00 	lea    0x0(%edi,%eiz,1),%edi

00101380 <bmap>:

// Return the disk block address of the nth block in inode ip.
// If there is no such block, alloc controls whether one is allocated.
static uint
bmap(struct inode *ip, uint bn, int alloc)
{
  101380:	55                   	push   %ebp
  101381:	89 e5                	mov    %esp,%ebp
  101383:	83 ec 28             	sub    $0x28,%esp
  uint addr, *a;
  struct buf *bp;

  if(bn < NDIRECT){
  101386:	83 fa 0b             	cmp    $0xb,%edx

// Return the disk block address of the nth block in inode ip.
// If there is no such block, alloc controls whether one is allocated.
static uint
bmap(struct inode *ip, uint bn, int alloc)
{
  101389:	89 75 f8             	mov    %esi,-0x8(%ebp)
  10138c:	89 c6                	mov    %eax,%esi
  10138e:	89 7d fc             	mov    %edi,-0x4(%ebp)
  101391:	89 cf                	mov    %ecx,%edi
  101393:	89 5d f4             	mov    %ebx,-0xc(%ebp)
  uint addr, *a;
  struct buf *bp;

  if(bn < NDIRECT){
  101396:	77 38                	ja     1013d0 <bmap+0x50>
    if((addr = ip->addrs[bn]) == 0){
  101398:	83 c2 04             	add    $0x4,%edx
  10139b:	8b 5c 90 0c          	mov    0xc(%eax,%edx,4),%ebx
  10139f:	89 55 e8             	mov    %edx,-0x18(%ebp)
  1013a2:	85 db                	test   %ebx,%ebx
  1013a4:	75 1a                	jne    1013c0 <bmap+0x40>
      if(!alloc)
  1013a6:	85 c9                	test   %ecx,%ecx
  1013a8:	74 3d                	je     1013e7 <bmap+0x67>
        return -1;
      ip->addrs[bn] = addr = balloc(ip->dev);
  1013aa:	8b 00                	mov    (%eax),%eax
  1013ac:	e8 ff fe ff ff       	call   1012b0 <balloc>
  1013b1:	89 c3                	mov    %eax,%ebx
  1013b3:	8b 45 e8             	mov    -0x18(%ebp),%eax
  1013b6:	89 5c 86 0c          	mov    %ebx,0xc(%esi,%eax,4)
  1013ba:	8d b6 00 00 00 00    	lea    0x0(%esi),%esi
    brelse(bp);
    return addr;
  }

  panic("bmap: out of range");
}
  1013c0:	89 d8                	mov    %ebx,%eax
  1013c2:	8b 75 f8             	mov    -0x8(%ebp),%esi
  1013c5:	8b 5d f4             	mov    -0xc(%ebp),%ebx
  1013c8:	8b 7d fc             	mov    -0x4(%ebp),%edi
  1013cb:	89 ec                	mov    %ebp,%esp
  1013cd:	5d                   	pop    %ebp
  1013ce:	c3                   	ret    
  1013cf:	90                   	nop    
        return -1;
      ip->addrs[bn] = addr = balloc(ip->dev);
    }
    return addr;
  }
  bn -= NDIRECT;
  1013d0:	8d 5a f4             	lea    -0xc(%edx),%ebx

  if(bn < NINDIRECT){
  1013d3:	83 fb 7f             	cmp    $0x7f,%ebx
  1013d6:	0f 87 8d 00 00 00    	ja     101469 <bmap+0xe9>
    // Load indirect block, allocating if necessary.
    if((addr = ip->addrs[INDIRECT]) == 0){
  1013dc:	8b 40 4c             	mov    0x4c(%eax),%eax
  1013df:	85 c0                	test   %eax,%eax
  1013e1:	75 25                	jne    101408 <bmap+0x88>
      if(!alloc)
  1013e3:	85 c9                	test   %ecx,%ecx
  1013e5:	75 11                	jne    1013f8 <bmap+0x78>
    }
    brelse(bp);
    return addr;
  }

  panic("bmap: out of range");
  1013e7:	bb ff ff ff ff       	mov    $0xffffffff,%ebx
  1013ec:	8d 74 26 00          	lea    0x0(%esi,%eiz,1),%esi
  1013f0:	eb ce                	jmp    1013c0 <bmap+0x40>
  1013f2:	8d b6 00 00 00 00    	lea    0x0(%esi),%esi
  if(bn < NINDIRECT){
    // Load indirect block, allocating if necessary.
    if((addr = ip->addrs[INDIRECT]) == 0){
      if(!alloc)
        return -1;
      ip->addrs[INDIRECT] = addr = balloc(ip->dev);
  1013f8:	8b 06                	mov    (%esi),%eax
  1013fa:	8d b6 00 00 00 00    	lea    0x0(%esi),%esi
  101400:	e8 ab fe ff ff       	call   1012b0 <balloc>
  101405:	89 46 4c             	mov    %eax,0x4c(%esi)
    }
    bp = bread(ip->dev, addr);
  101408:	89 44 24 04          	mov    %eax,0x4(%esp)
  10140c:	8b 06                	mov    (%esi),%eax
  10140e:	89 04 24             	mov    %eax,(%esp)
  101411:	e8 9a ec ff ff       	call   1000b0 <bread>
    a = (uint*)bp->data;
  
    if((addr = a[bn]) == 0){
  101416:	8d 5c 98 18          	lea    0x18(%eax,%ebx,4),%ebx
  10141a:	89 5d ec             	mov    %ebx,-0x14(%ebp)
  10141d:	8b 1b                	mov    (%ebx),%ebx
    if((addr = ip->addrs[INDIRECT]) == 0){
      if(!alloc)
        return -1;
      ip->addrs[INDIRECT] = addr = balloc(ip->dev);
    }
    bp = bread(ip->dev, addr);
  10141f:	89 45 f0             	mov    %eax,-0x10(%ebp)
    a = (uint*)bp->data;
  
    if((addr = a[bn]) == 0){
  101422:	85 db                	test   %ebx,%ebx
  101424:	75 33                	jne    101459 <bmap+0xd9>
      if(!alloc){
  101426:	85 ff                	test   %edi,%edi
  101428:	75 16                	jne    101440 <bmap+0xc0>
        brelse(bp);
  10142a:	8b 45 f0             	mov    -0x10(%ebp),%eax
  10142d:	bb ff ff ff ff       	mov    $0xffffffff,%ebx
  101432:	89 04 24             	mov    %eax,(%esp)
  101435:	e8 c6 eb ff ff       	call   100000 <brelse>
  10143a:	eb 84                	jmp    1013c0 <bmap+0x40>
  10143c:	8d 74 26 00          	lea    0x0(%esi,%eiz,1),%esi
        return -1;
      }
      a[bn] = addr = balloc(ip->dev);
  101440:	8b 06                	mov    (%esi),%eax
  101442:	e8 69 fe ff ff       	call   1012b0 <balloc>
  101447:	89 c3                	mov    %eax,%ebx
  101449:	8b 45 ec             	mov    -0x14(%ebp),%eax
  10144c:	89 18                	mov    %ebx,(%eax)
      bwrite(bp);
  10144e:	8b 45 f0             	mov    -0x10(%ebp),%eax
  101451:	89 04 24             	mov    %eax,(%esp)
  101454:	e8 27 ec ff ff       	call   100080 <bwrite>
    }
    brelse(bp);
  101459:	8b 45 f0             	mov    -0x10(%ebp),%eax
  10145c:	89 04 24             	mov    %eax,(%esp)
  10145f:	e8 9c eb ff ff       	call   100000 <brelse>
  101464:	e9 57 ff ff ff       	jmp    1013c0 <bmap+0x40>
    return addr;
  }

  panic("bmap: out of range");
  101469:	c7 04 24 60 62 10 00 	movl   $0x106260,(%esp)
  101470:	e8 fb f4 ff ff       	call   100970 <panic>
  101475:	8d 74 26 00          	lea    0x0(%esi,%eiz,1),%esi
  101479:	8d bc 27 00 00 00 00 	lea    0x0(%edi,%eiz,1),%edi

00101480 <readi>:
}

// Read data from inode.
int
readi(struct inode *ip, char *dst, uint off, uint n)
{
  101480:	55                   	push   %ebp
  101481:	89 e5                	mov    %esp,%ebp
  101483:	83 ec 28             	sub    $0x28,%esp
  101486:	89 7d fc             	mov    %edi,-0x4(%ebp)
  101489:	8b 7d 08             	mov    0x8(%ebp),%edi
  10148c:	8b 45 0c             	mov    0xc(%ebp),%eax
  10148f:	8b 4d 14             	mov    0x14(%ebp),%ecx
  101492:	89 5d f4             	mov    %ebx,-0xc(%ebp)
  101495:	8b 5d 10             	mov    0x10(%ebp),%ebx
  101498:	89 75 f8             	mov    %esi,-0x8(%ebp)
  uint tot, m;
  struct buf *bp;

  if(ip->type == T_DEV){
  10149b:	66 83 7f 10 03       	cmpw   $0x3,0x10(%edi)
}

// Read data from inode.
int
readi(struct inode *ip, char *dst, uint off, uint n)
{
  1014a0:	89 45 e8             	mov    %eax,-0x18(%ebp)
  1014a3:	89 4d e4             	mov    %ecx,-0x1c(%ebp)
  uint tot, m;
  struct buf *bp;

  if(ip->type == T_DEV){
  1014a6:	74 20                	je     1014c8 <readi+0x48>
    if(ip->major < 0 || ip->major >= NDEV || !devsw[ip->major].read)
      return -1;
    return devsw[ip->major].read(ip, dst, n);
  }

  if(off > ip->size || off + n < off)
  1014a8:	8b 47 18             	mov    0x18(%edi),%eax
  1014ab:	39 d8                	cmp    %ebx,%eax
  1014ad:	73 49                	jae    1014f8 <readi+0x78>
    bp = bread(ip->dev, bmap(ip, off/BSIZE, 0));
    m = min(n - tot, BSIZE - off%BSIZE);
    memmove(dst, bp->data + off%BSIZE, m);
    brelse(bp);
  }
  return n;
  1014af:	b8 ff ff ff ff       	mov    $0xffffffff,%eax
}
  1014b4:	8b 5d f4             	mov    -0xc(%ebp),%ebx
  1014b7:	8b 75 f8             	mov    -0x8(%ebp),%esi
  1014ba:	8b 7d fc             	mov    -0x4(%ebp),%edi
  1014bd:	89 ec                	mov    %ebp,%esp
  1014bf:	5d                   	pop    %ebp
  1014c0:	c3                   	ret    
  1014c1:	8d b4 26 00 00 00 00 	lea    0x0(%esi,%eiz,1),%esi
{
  uint tot, m;
  struct buf *bp;

  if(ip->type == T_DEV){
    if(ip->major < 0 || ip->major >= NDEV || !devsw[ip->major].read)
  1014c8:	0f b7 47 12          	movzwl 0x12(%edi),%eax
  1014cc:	66 83 f8 09          	cmp    $0x9,%ax
  1014d0:	77 dd                	ja     1014af <readi+0x2f>
  1014d2:	98                   	cwtl   
  1014d3:	8b 0c c5 20 a3 10 00 	mov    0x10a320(,%eax,8),%ecx
  1014da:	85 c9                	test   %ecx,%ecx
  1014dc:	74 d1                	je     1014af <readi+0x2f>
      return -1;
    return devsw[ip->major].read(ip, dst, n);
  1014de:	8b 45 e4             	mov    -0x1c(%ebp),%eax
    m = min(n - tot, BSIZE - off%BSIZE);
    memmove(dst, bp->data + off%BSIZE, m);
    brelse(bp);
  }
  return n;
}
  1014e1:	8b 5d f4             	mov    -0xc(%ebp),%ebx
  1014e4:	8b 75 f8             	mov    -0x8(%ebp),%esi
  1014e7:	8b 7d fc             	mov    -0x4(%ebp),%edi
  struct buf *bp;

  if(ip->type == T_DEV){
    if(ip->major < 0 || ip->major >= NDEV || !devsw[ip->major].read)
      return -1;
    return devsw[ip->major].read(ip, dst, n);
  1014ea:	89 45 10             	mov    %eax,0x10(%ebp)
    m = min(n - tot, BSIZE - off%BSIZE);
    memmove(dst, bp->data + off%BSIZE, m);
    brelse(bp);
  }
  return n;
}
  1014ed:	89 ec                	mov    %ebp,%esp
  1014ef:	5d                   	pop    %ebp
  struct buf *bp;

  if(ip->type == T_DEV){
    if(ip->major < 0 || ip->major >= NDEV || !devsw[ip->major].read)
      return -1;
    return devsw[ip->major].read(ip, dst, n);
  1014f0:	ff e1                	jmp    *%ecx
  1014f2:	8d b6 00 00 00 00    	lea    0x0(%esi),%esi
  }

  if(off > ip->size || off + n < off)
  1014f8:	8b 55 e4             	mov    -0x1c(%ebp),%edx
  1014fb:	01 da                	add    %ebx,%edx
  1014fd:	72 b0                	jb     1014af <readi+0x2f>
    return -1;
  if(off + n > ip->size)
  1014ff:	39 d0                	cmp    %edx,%eax
  101501:	73 05                	jae    101508 <readi+0x88>
    n = ip->size - off;
  101503:	29 d8                	sub    %ebx,%eax
  101505:	89 45 e4             	mov    %eax,-0x1c(%ebp)

  for(tot=0; tot<n; tot+=m, off+=m, dst+=m){
  101508:	8b 55 e4             	mov    -0x1c(%ebp),%edx
  10150b:	85 d2                	test   %edx,%edx
  10150d:	74 78                	je     101587 <readi+0x107>
  10150f:	c7 45 ec 00 00 00 00 	movl   $0x0,-0x14(%ebp)
  101516:	66 90                	xchg   %ax,%ax
    bp = bread(ip->dev, bmap(ip, off/BSIZE, 0));
  101518:	89 da                	mov    %ebx,%edx
  10151a:	31 c9                	xor    %ecx,%ecx
  10151c:	c1 ea 09             	shr    $0x9,%edx
  10151f:	89 f8                	mov    %edi,%eax
  101521:	e8 5a fe ff ff       	call   101380 <bmap>
    m = min(n - tot, BSIZE - off%BSIZE);
  101526:	be 00 02 00 00       	mov    $0x200,%esi
    return -1;
  if(off + n > ip->size)
    n = ip->size - off;

  for(tot=0; tot<n; tot+=m, off+=m, dst+=m){
    bp = bread(ip->dev, bmap(ip, off/BSIZE, 0));
  10152b:	89 44 24 04          	mov    %eax,0x4(%esp)
  10152f:	8b 07                	mov    (%edi),%eax
  101531:	89 04 24             	mov    %eax,(%esp)
  101534:	e8 77 eb ff ff       	call   1000b0 <bread>
    m = min(n - tot, BSIZE - off%BSIZE);
  101539:	89 da                	mov    %ebx,%edx
  10153b:	81 e2 ff 01 00 00    	and    $0x1ff,%edx
  101541:	29 d6                	sub    %edx,%esi
    return -1;
  if(off + n > ip->size)
    n = ip->size - off;

  for(tot=0; tot<n; tot+=m, off+=m, dst+=m){
    bp = bread(ip->dev, bmap(ip, off/BSIZE, 0));
  101543:	89 45 f0             	mov    %eax,-0x10(%ebp)
    m = min(n - tot, BSIZE - off%BSIZE);
  101546:	8b 45 e4             	mov    -0x1c(%ebp),%eax
  101549:	2b 45 ec             	sub    -0x14(%ebp),%eax
  10154c:	39 c6                	cmp    %eax,%esi
  10154e:	76 02                	jbe    101552 <readi+0xd2>
  101550:	89 c6                	mov    %eax,%esi
    memmove(dst, bp->data + off%BSIZE, m);
  101552:	89 74 24 08          	mov    %esi,0x8(%esp)
  101556:	8b 4d f0             	mov    -0x10(%ebp),%ecx
  if(off > ip->size || off + n < off)
    return -1;
  if(off + n > ip->size)
    n = ip->size - off;

  for(tot=0; tot<n; tot+=m, off+=m, dst+=m){
  101559:	01 f3                	add    %esi,%ebx
    bp = bread(ip->dev, bmap(ip, off/BSIZE, 0));
    m = min(n - tot, BSIZE - off%BSIZE);
    memmove(dst, bp->data + off%BSIZE, m);
  10155b:	8d 44 11 18          	lea    0x18(%ecx,%edx,1),%eax
  10155f:	89 44 24 04          	mov    %eax,0x4(%esp)
  101563:	8b 45 e8             	mov    -0x18(%ebp),%eax
  101566:	89 04 24             	mov    %eax,(%esp)
  101569:	e8 d2 2c 00 00       	call   104240 <memmove>
    brelse(bp);
  10156e:	8b 4d f0             	mov    -0x10(%ebp),%ecx
  101571:	89 0c 24             	mov    %ecx,(%esp)
  101574:	e8 87 ea ff ff       	call   100000 <brelse>
  if(off > ip->size || off + n < off)
    return -1;
  if(off + n > ip->size)
    n = ip->size - off;

  for(tot=0; tot<n; tot+=m, off+=m, dst+=m){
  101579:	01 75 ec             	add    %esi,-0x14(%ebp)
  10157c:	8b 45 ec             	mov    -0x14(%ebp),%eax
  10157f:	01 75 e8             	add    %esi,-0x18(%ebp)
  101582:	39 45 e4             	cmp    %eax,-0x1c(%ebp)
  101585:	77 91                	ja     101518 <readi+0x98>
    bp = bread(ip->dev, bmap(ip, off/BSIZE, 0));
    m = min(n - tot, BSIZE - off%BSIZE);
    memmove(dst, bp->data + off%BSIZE, m);
    brelse(bp);
  }
  return n;
  101587:	8b 45 e4             	mov    -0x1c(%ebp),%eax
  10158a:	e9 25 ff ff ff       	jmp    1014b4 <readi+0x34>
  10158f:	90                   	nop    

00101590 <iupdate>:
}

// Copy inode, which has changed, from memory to disk.
void
iupdate(struct inode *ip)
{
  101590:	55                   	push   %ebp
  101591:	89 e5                	mov    %esp,%ebp
  101593:	56                   	push   %esi
  101594:	53                   	push   %ebx
  101595:	83 ec 10             	sub    $0x10,%esp
  101598:	8b 5d 08             	mov    0x8(%ebp),%ebx
  struct buf *bp;
  struct dinode *dip;

  bp = bread(ip->dev, IBLOCK(ip->inum));
  10159b:	8b 43 04             	mov    0x4(%ebx),%eax
  10159e:	c1 e8 03             	shr    $0x3,%eax
  1015a1:	83 c0 02             	add    $0x2,%eax
  1015a4:	89 44 24 04          	mov    %eax,0x4(%esp)
  1015a8:	8b 03                	mov    (%ebx),%eax
  1015aa:	89 04 24             	mov    %eax,(%esp)
  1015ad:	e8 fe ea ff ff       	call   1000b0 <bread>
  1015b2:	89 c6                	mov    %eax,%esi
  dip = (struct dinode*)bp->data + ip->inum%IPB;
  1015b4:	8b 43 04             	mov    0x4(%ebx),%eax
  1015b7:	83 e0 07             	and    $0x7,%eax
  1015ba:	c1 e0 06             	shl    $0x6,%eax
  1015bd:	8d 54 06 18          	lea    0x18(%esi,%eax,1),%edx
  dip->type = ip->type;
  1015c1:	0f b7 43 10          	movzwl 0x10(%ebx),%eax
  1015c5:	66 89 02             	mov    %ax,(%edx)
  dip->major = ip->major;
  1015c8:	0f b7 43 12          	movzwl 0x12(%ebx),%eax
  1015cc:	66 89 42 02          	mov    %ax,0x2(%edx)
  dip->minor = ip->minor;
  1015d0:	0f b7 43 14          	movzwl 0x14(%ebx),%eax
  1015d4:	66 89 42 04          	mov    %ax,0x4(%edx)
  dip->nlink = ip->nlink;
  1015d8:	0f b7 43 16          	movzwl 0x16(%ebx),%eax
  1015dc:	66 89 42 06          	mov    %ax,0x6(%edx)
  dip->size = ip->size;
  1015e0:	8b 43 18             	mov    0x18(%ebx),%eax
  memmove(dip->addrs, ip->addrs, sizeof(ip->addrs));
  1015e3:	83 c3 1c             	add    $0x1c,%ebx
  dip = (struct dinode*)bp->data + ip->inum%IPB;
  dip->type = ip->type;
  dip->major = ip->major;
  dip->minor = ip->minor;
  dip->nlink = ip->nlink;
  dip->size = ip->size;
  1015e6:	89 42 08             	mov    %eax,0x8(%edx)
  memmove(dip->addrs, ip->addrs, sizeof(ip->addrs));
  1015e9:	83 c2 0c             	add    $0xc,%edx
  1015ec:	89 5c 24 04          	mov    %ebx,0x4(%esp)
  1015f0:	89 14 24             	mov    %edx,(%esp)
  1015f3:	c7 44 24 08 34 00 00 	movl   $0x34,0x8(%esp)
  1015fa:	00 
  1015fb:	e8 40 2c 00 00       	call   104240 <memmove>
  bwrite(bp);
  101600:	89 34 24             	mov    %esi,(%esp)
  101603:	e8 78 ea ff ff       	call   100080 <bwrite>
  brelse(bp);
  101608:	89 75 08             	mov    %esi,0x8(%ebp)
}
  10160b:	83 c4 10             	add    $0x10,%esp
  10160e:	5b                   	pop    %ebx
  10160f:	5e                   	pop    %esi
  101610:	5d                   	pop    %ebp
  dip->minor = ip->minor;
  dip->nlink = ip->nlink;
  dip->size = ip->size;
  memmove(dip->addrs, ip->addrs, sizeof(ip->addrs));
  bwrite(bp);
  brelse(bp);
  101611:	e9 ea e9 ff ff       	jmp    100000 <brelse>
  101616:	8d 76 00             	lea    0x0(%esi),%esi
  101619:	8d bc 27 00 00 00 00 	lea    0x0(%edi,%eiz,1),%edi

00101620 <writei>:
}

// Write data to inode.
int
writei(struct inode *ip, char *src, uint off, uint n)
{
  101620:	55                   	push   %ebp
  101621:	89 e5                	mov    %esp,%ebp
  101623:	57                   	push   %edi
  101624:	56                   	push   %esi
  101625:	53                   	push   %ebx
  101626:	83 ec 1c             	sub    $0x1c,%esp
  101629:	8b 45 08             	mov    0x8(%ebp),%eax
  10162c:	8b 55 0c             	mov    0xc(%ebp),%edx
  10162f:	8b 7d 10             	mov    0x10(%ebp),%edi
  101632:	89 45 ec             	mov    %eax,-0x14(%ebp)
  101635:	8b 45 14             	mov    0x14(%ebp),%eax
  101638:	89 55 e8             	mov    %edx,-0x18(%ebp)
  uint tot, m;
  struct buf *bp;

  if(ip->type == T_DEV){
  10163b:	8b 55 ec             	mov    -0x14(%ebp),%edx
}

// Write data to inode.
int
writei(struct inode *ip, char *src, uint off, uint n)
{
  10163e:	89 45 e4             	mov    %eax,-0x1c(%ebp)
  uint tot, m;
  struct buf *bp;

  if(ip->type == T_DEV){
  101641:	66 83 7a 10 03       	cmpw   $0x3,0x10(%edx)
  101646:	0f 84 bc 00 00 00    	je     101708 <writei+0xe8>
    if(ip->major < 0 || ip->major >= NDEV || !devsw[ip->major].write)
      return -1;
    return devsw[ip->major].write(ip, src, n);
  }

  if(off + n < off)
  10164c:	8b 45 e4             	mov    -0x1c(%ebp),%eax
  10164f:	01 f8                	add    %edi,%eax
  101651:	0f 82 bb 00 00 00    	jb     101712 <writei+0xf2>
    return -1;
  if(off + n > MAXFILE*BSIZE)
  101657:	3d 00 18 01 00       	cmp    $0x11800,%eax
  10165c:	0f 87 be 00 00 00    	ja     101720 <writei+0x100>
    n = MAXFILE*BSIZE - off;

  for(tot=0; tot<n; tot+=m, off+=m, src+=m){
  101662:	8b 4d e4             	mov    -0x1c(%ebp),%ecx
  101665:	85 c9                	test   %ecx,%ecx
  101667:	0f 84 8a 00 00 00    	je     1016f7 <writei+0xd7>
  10166d:	c7 45 f0 00 00 00 00 	movl   $0x0,-0x10(%ebp)
  101674:	8d 74 26 00          	lea    0x0(%esi,%eiz,1),%esi
    bp = bread(ip->dev, bmap(ip, off/BSIZE, 1));
  101678:	8b 45 ec             	mov    -0x14(%ebp),%eax
  10167b:	89 fa                	mov    %edi,%edx
  10167d:	b9 01 00 00 00       	mov    $0x1,%ecx
  101682:	c1 ea 09             	shr    $0x9,%edx
    m = min(n - tot, BSIZE - off%BSIZE);
  101685:	bb 00 02 00 00       	mov    $0x200,%ebx
    return -1;
  if(off + n > MAXFILE*BSIZE)
    n = MAXFILE*BSIZE - off;

  for(tot=0; tot<n; tot+=m, off+=m, src+=m){
    bp = bread(ip->dev, bmap(ip, off/BSIZE, 1));
  10168a:	e8 f1 fc ff ff       	call   101380 <bmap>
  10168f:	89 44 24 04          	mov    %eax,0x4(%esp)
  101693:	8b 55 ec             	mov    -0x14(%ebp),%edx
  101696:	8b 02                	mov    (%edx),%eax
  101698:	89 04 24             	mov    %eax,(%esp)
  10169b:	e8 10 ea ff ff       	call   1000b0 <bread>
    m = min(n - tot, BSIZE - off%BSIZE);
  1016a0:	89 fa                	mov    %edi,%edx
  1016a2:	81 e2 ff 01 00 00    	and    $0x1ff,%edx
  1016a8:	29 d3                	sub    %edx,%ebx
    return -1;
  if(off + n > MAXFILE*BSIZE)
    n = MAXFILE*BSIZE - off;

  for(tot=0; tot<n; tot+=m, off+=m, src+=m){
    bp = bread(ip->dev, bmap(ip, off/BSIZE, 1));
  1016aa:	89 c6                	mov    %eax,%esi
    m = min(n - tot, BSIZE - off%BSIZE);
  1016ac:	8b 45 e4             	mov    -0x1c(%ebp),%eax
  1016af:	2b 45 f0             	sub    -0x10(%ebp),%eax
  1016b2:	39 c3                	cmp    %eax,%ebx
  1016b4:	76 02                	jbe    1016b8 <writei+0x98>
  1016b6:	89 c3                	mov    %eax,%ebx
    memmove(bp->data + off%BSIZE, src, m);
  1016b8:	89 5c 24 08          	mov    %ebx,0x8(%esp)
  1016bc:	8b 45 e8             	mov    -0x18(%ebp),%eax
  if(off + n < off)
    return -1;
  if(off + n > MAXFILE*BSIZE)
    n = MAXFILE*BSIZE - off;

  for(tot=0; tot<n; tot+=m, off+=m, src+=m){
  1016bf:	01 df                	add    %ebx,%edi
    bp = bread(ip->dev, bmap(ip, off/BSIZE, 1));
    m = min(n - tot, BSIZE - off%BSIZE);
    memmove(bp->data + off%BSIZE, src, m);
  1016c1:	89 44 24 04          	mov    %eax,0x4(%esp)
  1016c5:	8d 44 16 18          	lea    0x18(%esi,%edx,1),%eax
  1016c9:	89 04 24             	mov    %eax,(%esp)
  1016cc:	e8 6f 2b 00 00       	call   104240 <memmove>
    bwrite(bp);
  1016d1:	89 34 24             	mov    %esi,(%esp)
  1016d4:	e8 a7 e9 ff ff       	call   100080 <bwrite>
    brelse(bp);
  1016d9:	89 34 24             	mov    %esi,(%esp)
  1016dc:	e8 1f e9 ff ff       	call   100000 <brelse>
  if(off + n < off)
    return -1;
  if(off + n > MAXFILE*BSIZE)
    n = MAXFILE*BSIZE - off;

  for(tot=0; tot<n; tot+=m, off+=m, src+=m){
  1016e1:	01 5d f0             	add    %ebx,-0x10(%ebp)
  1016e4:	8b 55 f0             	mov    -0x10(%ebp),%edx
  1016e7:	01 5d e8             	add    %ebx,-0x18(%ebp)
  1016ea:	39 55 e4             	cmp    %edx,-0x1c(%ebp)
  1016ed:	77 89                	ja     101678 <writei+0x58>
    memmove(bp->data + off%BSIZE, src, m);
    bwrite(bp);
    brelse(bp);
  }

  if(n > 0 && off > ip->size){
  1016ef:	8b 45 ec             	mov    -0x14(%ebp),%eax
  1016f2:	3b 78 18             	cmp    0x18(%eax),%edi
  1016f5:	77 39                	ja     101730 <writei+0x110>
    ip->size = off;
    iupdate(ip);
  }
  return n;
  1016f7:	8b 45 e4             	mov    -0x1c(%ebp),%eax
}
  1016fa:	83 c4 1c             	add    $0x1c,%esp
  1016fd:	5b                   	pop    %ebx
  1016fe:	5e                   	pop    %esi
  1016ff:	5f                   	pop    %edi
  101700:	5d                   	pop    %ebp
  101701:	c3                   	ret    
  101702:	8d b6 00 00 00 00    	lea    0x0(%esi),%esi
{
  uint tot, m;
  struct buf *bp;

  if(ip->type == T_DEV){
    if(ip->major < 0 || ip->major >= NDEV || !devsw[ip->major].write)
  101708:	0f b7 42 12          	movzwl 0x12(%edx),%eax
  10170c:	66 83 f8 09          	cmp    $0x9,%ax
  101710:	76 2b                	jbe    10173d <writei+0x11d>
  if(n > 0 && off > ip->size){
    ip->size = off;
    iupdate(ip);
  }
  return n;
}
  101712:	83 c4 1c             	add    $0x1c,%esp

  if(n > 0 && off > ip->size){
    ip->size = off;
    iupdate(ip);
  }
  return n;
  101715:	b8 ff ff ff ff       	mov    $0xffffffff,%eax
}
  10171a:	5b                   	pop    %ebx
  10171b:	5e                   	pop    %esi
  10171c:	5f                   	pop    %edi
  10171d:	5d                   	pop    %ebp
  10171e:	c3                   	ret    
  10171f:	90                   	nop    
  }

  if(off + n < off)
    return -1;
  if(off + n > MAXFILE*BSIZE)
    n = MAXFILE*BSIZE - off;
  101720:	c7 45 e4 00 18 01 00 	movl   $0x11800,-0x1c(%ebp)
  101727:	29 7d e4             	sub    %edi,-0x1c(%ebp)
  10172a:	e9 33 ff ff ff       	jmp    101662 <writei+0x42>
  10172f:	90                   	nop    
    bwrite(bp);
    brelse(bp);
  }

  if(n > 0 && off > ip->size){
    ip->size = off;
  101730:	89 78 18             	mov    %edi,0x18(%eax)
    iupdate(ip);
  101733:	89 04 24             	mov    %eax,(%esp)
  101736:	e8 55 fe ff ff       	call   101590 <iupdate>
  10173b:	eb ba                	jmp    1016f7 <writei+0xd7>
{
  uint tot, m;
  struct buf *bp;

  if(ip->type == T_DEV){
    if(ip->major < 0 || ip->major >= NDEV || !devsw[ip->major].write)
  10173d:	98                   	cwtl   
  10173e:	8b 0c c5 24 a3 10 00 	mov    0x10a324(,%eax,8),%ecx
  101745:	85 c9                	test   %ecx,%ecx
  101747:	74 c9                	je     101712 <writei+0xf2>
      return -1;
    return devsw[ip->major].write(ip, src, n);
  101749:	8b 45 e4             	mov    -0x1c(%ebp),%eax
  10174c:	89 45 10             	mov    %eax,0x10(%ebp)
  if(n > 0 && off > ip->size){
    ip->size = off;
    iupdate(ip);
  }
  return n;
}
  10174f:	83 c4 1c             	add    $0x1c,%esp
  101752:	5b                   	pop    %ebx
  101753:	5e                   	pop    %esi
  101754:	5f                   	pop    %edi
  101755:	5d                   	pop    %ebp
  struct buf *bp;

  if(ip->type == T_DEV){
    if(ip->major < 0 || ip->major >= NDEV || !devsw[ip->major].write)
      return -1;
    return devsw[ip->major].write(ip, src, n);
  101756:	ff e1                	jmp    *%ecx
  101758:	90                   	nop    
  101759:	8d b4 26 00 00 00 00 	lea    0x0(%esi,%eiz,1),%esi

00101760 <namecmp>:

// Directories

int
namecmp(const char *s, const char *t)
{
  101760:	55                   	push   %ebp
  101761:	89 e5                	mov    %esp,%ebp
  101763:	83 ec 18             	sub    $0x18,%esp
  return strncmp(s, t, DIRSIZ);
  101766:	8b 45 0c             	mov    0xc(%ebp),%eax
  101769:	c7 44 24 08 0e 00 00 	movl   $0xe,0x8(%esp)
  101770:	00 
  101771:	89 44 24 04          	mov    %eax,0x4(%esp)
  101775:	8b 45 08             	mov    0x8(%ebp),%eax
  101778:	89 04 24             	mov    %eax,(%esp)
  10177b:	e8 30 2b 00 00       	call   1042b0 <strncmp>
}
  101780:	c9                   	leave  
  101781:	c3                   	ret    
  101782:	8d b4 26 00 00 00 00 	lea    0x0(%esi,%eiz,1),%esi
  101789:	8d bc 27 00 00 00 00 	lea    0x0(%edi,%eiz,1),%edi

00101790 <dirlookup>:
// Look for a directory entry in a directory.
// If found, set *poff to byte offset of entry.
// Caller must have already locked dp.
struct inode*
dirlookup(struct inode *dp, char *name, uint *poff)
{
  101790:	55                   	push   %ebp
  101791:	89 e5                	mov    %esp,%ebp
  101793:	57                   	push   %edi
  101794:	56                   	push   %esi
  101795:	53                   	push   %ebx
  101796:	83 ec 2c             	sub    $0x2c,%esp
  101799:	8b 45 08             	mov    0x8(%ebp),%eax
  10179c:	8b 55 0c             	mov    0xc(%ebp),%edx
  10179f:	8b 4d 10             	mov    0x10(%ebp),%ecx
  uint off, inum;
  struct buf *bp;
  struct dirent *de;

  if(dp->type != T_DIR)
  1017a2:	66 83 78 10 01       	cmpw   $0x1,0x10(%eax)
// Look for a directory entry in a directory.
// If found, set *poff to byte offset of entry.
// Caller must have already locked dp.
struct inode*
dirlookup(struct inode *dp, char *name, uint *poff)
{
  1017a7:	89 45 e8             	mov    %eax,-0x18(%ebp)
  1017aa:	89 55 e4             	mov    %edx,-0x1c(%ebp)
  1017ad:	89 4d e0             	mov    %ecx,-0x20(%ebp)
  uint off, inum;
  struct buf *bp;
  struct dirent *de;

  if(dp->type != T_DIR)
  1017b0:	0f 85 d2 00 00 00    	jne    101888 <dirlookup+0xf8>
    panic("dirlookup not DIR");

  for(off = 0; off < dp->size; off += BSIZE){
  1017b6:	8b 78 18             	mov    0x18(%eax),%edi
  uint off, inum;
  struct buf *bp;
  struct dirent *de;

  if(dp->type != T_DIR)
    panic("dirlookup not DIR");
  1017b9:	c7 45 f0 00 00 00 00 	movl   $0x0,-0x10(%ebp)

  for(off = 0; off < dp->size; off += BSIZE){
  1017c0:	85 ff                	test   %edi,%edi
  1017c2:	0f 84 b6 00 00 00    	je     10187e <dirlookup+0xee>
    bp = bread(dp->dev, bmap(dp, off / BSIZE, 0));
  1017c8:	8b 55 f0             	mov    -0x10(%ebp),%edx
  1017cb:	31 c9                	xor    %ecx,%ecx
  1017cd:	8b 45 e8             	mov    -0x18(%ebp),%eax
  1017d0:	c1 ea 09             	shr    $0x9,%edx
  1017d3:	e8 a8 fb ff ff       	call   101380 <bmap>
  1017d8:	89 44 24 04          	mov    %eax,0x4(%esp)
  1017dc:	8b 55 e8             	mov    -0x18(%ebp),%edx
  1017df:	8b 02                	mov    (%edx),%eax
  1017e1:	89 04 24             	mov    %eax,(%esp)
  1017e4:	e8 c7 e8 ff ff       	call   1000b0 <bread>
    for(de = (struct dirent*)bp->data;
  1017e9:	8d 48 18             	lea    0x18(%eax),%ecx

  if(dp->type != T_DIR)
    panic("dirlookup not DIR");

  for(off = 0; off < dp->size; off += BSIZE){
    bp = bread(dp->dev, bmap(dp, off / BSIZE, 0));
  1017ec:	89 c7                	mov    %eax,%edi
    for(de = (struct dirent*)bp->data;
  1017ee:	89 4d ec             	mov    %ecx,-0x14(%ebp)
  1017f1:	89 cb                	mov    %ecx,%ebx
        de < (struct dirent*)(bp->data + BSIZE);
  1017f3:	8d b0 18 02 00 00    	lea    0x218(%eax),%esi
  1017f9:	eb 0c                	jmp    101807 <dirlookup+0x77>
  1017fb:	90                   	nop    
  1017fc:	8d 74 26 00          	lea    0x0(%esi,%eiz,1),%esi
        de++){
  101800:	83 c3 10             	add    $0x10,%ebx
    panic("dirlookup not DIR");

  for(off = 0; off < dp->size; off += BSIZE){
    bp = bread(dp->dev, bmap(dp, off / BSIZE, 0));
    for(de = (struct dirent*)bp->data;
        de < (struct dirent*)(bp->data + BSIZE);
  101803:	39 f3                	cmp    %esi,%ebx
  101805:	74 59                	je     101860 <dirlookup+0xd0>
        de++){
      if(de->inum == 0)
  101807:	66 83 3b 00          	cmpw   $0x0,(%ebx)
  10180b:	74 f3                	je     101800 <dirlookup+0x70>
// Directories

int
namecmp(const char *s, const char *t)
{
  return strncmp(s, t, DIRSIZ);
  10180d:	8d 43 02             	lea    0x2(%ebx),%eax
  101810:	c7 44 24 08 0e 00 00 	movl   $0xe,0x8(%esp)
  101817:	00 
  101818:	89 44 24 04          	mov    %eax,0x4(%esp)
  10181c:	8b 45 e4             	mov    -0x1c(%ebp),%eax
  10181f:	89 04 24             	mov    %eax,(%esp)
  101822:	e8 89 2a 00 00       	call   1042b0 <strncmp>
    for(de = (struct dirent*)bp->data;
        de < (struct dirent*)(bp->data + BSIZE);
        de++){
      if(de->inum == 0)
        continue;
      if(namecmp(name, de->name) == 0){
  101827:	85 c0                	test   %eax,%eax
  101829:	75 d5                	jne    101800 <dirlookup+0x70>
        // entry matches path element
        if(poff)
  10182b:	8b 75 e0             	mov    -0x20(%ebp),%esi
  10182e:	85 f6                	test   %esi,%esi
  101830:	74 0e                	je     101840 <dirlookup+0xb0>
          *poff = off + (uchar*)de - bp->data;
  101832:	8b 55 f0             	mov    -0x10(%ebp),%edx
  101835:	8b 4d e0             	mov    -0x20(%ebp),%ecx
  101838:	8d 04 13             	lea    (%ebx,%edx,1),%eax
  10183b:	2b 45 ec             	sub    -0x14(%ebp),%eax
  10183e:	89 01                	mov    %eax,(%ecx)
        inum = de->inum;
  101840:	0f b7 1b             	movzwl (%ebx),%ebx
        brelse(bp);
  101843:	89 3c 24             	mov    %edi,(%esp)
  101846:	e8 b5 e7 ff ff       	call   100000 <brelse>
        return iget(dp->dev, inum);
  10184b:	8b 4d e8             	mov    -0x18(%ebp),%ecx
  10184e:	89 da                	mov    %ebx,%edx
  101850:	8b 01                	mov    (%ecx),%eax
      }
    }
    brelse(bp);
  }
  return 0;
}
  101852:	83 c4 2c             	add    $0x2c,%esp
  101855:	5b                   	pop    %ebx
  101856:	5e                   	pop    %esi
  101857:	5f                   	pop    %edi
  101858:	5d                   	pop    %ebp
        // entry matches path element
        if(poff)
          *poff = off + (uchar*)de - bp->data;
        inum = de->inum;
        brelse(bp);
        return iget(dp->dev, inum);
  101859:	e9 32 f9 ff ff       	jmp    101190 <iget>
  10185e:	66 90                	xchg   %ax,%ax
      }
    }
    brelse(bp);
  101860:	89 3c 24             	mov    %edi,(%esp)
  101863:	e8 98 e7 ff ff       	call   100000 <brelse>
  struct dirent *de;

  if(dp->type != T_DIR)
    panic("dirlookup not DIR");

  for(off = 0; off < dp->size; off += BSIZE){
  101868:	8b 45 e8             	mov    -0x18(%ebp),%eax
  10186b:	81 45 f0 00 02 00 00 	addl   $0x200,-0x10(%ebp)
  101872:	8b 55 f0             	mov    -0x10(%ebp),%edx
  101875:	39 50 18             	cmp    %edx,0x18(%eax)
  101878:	0f 87 4a ff ff ff    	ja     1017c8 <dirlookup+0x38>
      }
    }
    brelse(bp);
  }
  return 0;
}
  10187e:	83 c4 2c             	add    $0x2c,%esp
  101881:	31 c0                	xor    %eax,%eax
  101883:	5b                   	pop    %ebx
  101884:	5e                   	pop    %esi
  101885:	5f                   	pop    %edi
  101886:	5d                   	pop    %ebp
  101887:	c3                   	ret    
  uint off, inum;
  struct buf *bp;
  struct dirent *de;

  if(dp->type != T_DIR)
    panic("dirlookup not DIR");
  101888:	c7 04 24 73 62 10 00 	movl   $0x106273,(%esp)
  10188f:	e8 dc f0 ff ff       	call   100970 <panic>
  101894:	8d b6 00 00 00 00    	lea    0x0(%esi),%esi
  10189a:	8d bf 00 00 00 00    	lea    0x0(%edi),%edi

001018a0 <ialloc>:
}

// Allocate a new inode with the given type on device dev.
struct inode*
ialloc(uint dev, short type)
{
  1018a0:	55                   	push   %ebp
  1018a1:	89 e5                	mov    %esp,%ebp
  1018a3:	57                   	push   %edi
  1018a4:	56                   	push   %esi
  1018a5:	53                   	push   %ebx
  1018a6:	83 ec 2c             	sub    $0x2c,%esp
  1018a9:	0f b7 45 0c          	movzwl 0xc(%ebp),%eax
  int inum;
  struct buf *bp;
  struct dinode *dip;
  struct superblock sb;

  readsb(dev, &sb);
  1018ad:	8d 55 e8             	lea    -0x18(%ebp),%edx
}

// Allocate a new inode with the given type on device dev.
struct inode*
ialloc(uint dev, short type)
{
  1018b0:	66 89 45 de          	mov    %ax,-0x22(%ebp)
  int inum;
  struct buf *bp;
  struct dinode *dip;
  struct superblock sb;

  readsb(dev, &sb);
  1018b4:	8b 45 08             	mov    0x8(%ebp),%eax
  1018b7:	e8 a4 f9 ff ff       	call   101260 <readsb>
  for(inum = 1; inum < sb.ninodes; inum++){  // loop over inode blocks
  1018bc:	83 7d f0 01          	cmpl   $0x1,-0x10(%ebp)
  1018c0:	0f 86 9a 00 00 00    	jbe    101960 <ialloc+0xc0>
  1018c6:	bf 01 00 00 00       	mov    $0x1,%edi
  1018cb:	c7 45 e0 01 00 00 00 	movl   $0x1,-0x20(%ebp)
  1018d2:	eb 17                	jmp    1018eb <ialloc+0x4b>
  1018d4:	8d 74 26 00          	lea    0x0(%esi,%eiz,1),%esi
  1018d8:	83 c7 01             	add    $0x1,%edi
      dip->type = type;
      bwrite(bp);   // mark it allocated on the disk
      brelse(bp);
      return iget(dev, inum);
    }
    brelse(bp);
  1018db:	89 34 24             	mov    %esi,(%esp)
  1018de:	e8 1d e7 ff ff       	call   100000 <brelse>
  struct buf *bp;
  struct dinode *dip;
  struct superblock sb;

  readsb(dev, &sb);
  for(inum = 1; inum < sb.ninodes; inum++){  // loop over inode blocks
  1018e3:	3b 7d f0             	cmp    -0x10(%ebp),%edi
  1018e6:	89 7d e0             	mov    %edi,-0x20(%ebp)
  1018e9:	73 75                	jae    101960 <ialloc+0xc0>
    bp = bread(dev, IBLOCK(inum));
  1018eb:	8b 45 e0             	mov    -0x20(%ebp),%eax
  1018ee:	c1 e8 03             	shr    $0x3,%eax
  1018f1:	83 c0 02             	add    $0x2,%eax
  1018f4:	89 44 24 04          	mov    %eax,0x4(%esp)
  1018f8:	8b 45 08             	mov    0x8(%ebp),%eax
  1018fb:	89 04 24             	mov    %eax,(%esp)
  1018fe:	e8 ad e7 ff ff       	call   1000b0 <bread>
  101903:	89 c6                	mov    %eax,%esi
    dip = (struct dinode*)bp->data + inum%IPB;
  101905:	8b 45 e0             	mov    -0x20(%ebp),%eax
  101908:	83 e0 07             	and    $0x7,%eax
  10190b:	c1 e0 06             	shl    $0x6,%eax
  10190e:	8d 5c 06 18          	lea    0x18(%esi,%eax,1),%ebx
    if(dip->type == 0){  // a free inode
  101912:	66 83 3b 00          	cmpw   $0x0,(%ebx)
  101916:	75 c0                	jne    1018d8 <ialloc+0x38>
      memset(dip, 0, sizeof(*dip));
  101918:	89 1c 24             	mov    %ebx,(%esp)
  10191b:	c7 44 24 08 40 00 00 	movl   $0x40,0x8(%esp)
  101922:	00 
  101923:	c7 44 24 04 00 00 00 	movl   $0x0,0x4(%esp)
  10192a:	00 
  10192b:	e8 80 28 00 00       	call   1041b0 <memset>
      dip->type = type;
  101930:	0f b7 45 de          	movzwl -0x22(%ebp),%eax
  101934:	66 89 03             	mov    %ax,(%ebx)
      bwrite(bp);   // mark it allocated on the disk
  101937:	89 34 24             	mov    %esi,(%esp)
  10193a:	e8 41 e7 ff ff       	call   100080 <bwrite>
      brelse(bp);
  10193f:	89 34 24             	mov    %esi,(%esp)
  101942:	e8 b9 e6 ff ff       	call   100000 <brelse>
      return iget(dev, inum);
  101947:	8b 55 e0             	mov    -0x20(%ebp),%edx
  10194a:	8b 45 08             	mov    0x8(%ebp),%eax
  10194d:	e8 3e f8 ff ff       	call   101190 <iget>
    }
    brelse(bp);
  }
  panic("ialloc: no inodes");
}
  101952:	83 c4 2c             	add    $0x2c,%esp
  101955:	5b                   	pop    %ebx
  101956:	5e                   	pop    %esi
  101957:	5f                   	pop    %edi
  101958:	5d                   	pop    %ebp
  101959:	c3                   	ret    
  10195a:	8d b6 00 00 00 00    	lea    0x0(%esi),%esi
      brelse(bp);
      return iget(dev, inum);
    }
    brelse(bp);
  }
  panic("ialloc: no inodes");
  101960:	c7 04 24 85 62 10 00 	movl   $0x106285,(%esp)
  101967:	e8 04 f0 ff ff       	call   100970 <panic>
  10196c:	8d 74 26 00          	lea    0x0(%esi,%eiz,1),%esi

00101970 <bfree>:
}

// Free a disk block.
static void
bfree(int dev, uint b)
{
  101970:	55                   	push   %ebp
  101971:	89 e5                	mov    %esp,%ebp
  101973:	57                   	push   %edi
  101974:	89 c7                	mov    %eax,%edi
  101976:	56                   	push   %esi
  101977:	89 d6                	mov    %edx,%esi
  101979:	53                   	push   %ebx
  10197a:	83 ec 1c             	sub    $0x1c,%esp
static void
bzero(int dev, int bno)
{
  struct buf *bp;
  
  bp = bread(dev, bno);
  10197d:	89 54 24 04          	mov    %edx,0x4(%esp)
  101981:	89 04 24             	mov    %eax,(%esp)
  101984:	e8 27 e7 ff ff       	call   1000b0 <bread>
  memset(bp->data, 0, BSIZE);
  101989:	c7 44 24 08 00 02 00 	movl   $0x200,0x8(%esp)
  101990:	00 
  101991:	c7 44 24 04 00 00 00 	movl   $0x0,0x4(%esp)
  101998:	00 
static void
bzero(int dev, int bno)
{
  struct buf *bp;
  
  bp = bread(dev, bno);
  101999:	89 c3                	mov    %eax,%ebx
  memset(bp->data, 0, BSIZE);
  10199b:	8d 40 18             	lea    0x18(%eax),%eax
  10199e:	89 04 24             	mov    %eax,(%esp)
  1019a1:	e8 0a 28 00 00       	call   1041b0 <memset>
  bwrite(bp);
  1019a6:	89 1c 24             	mov    %ebx,(%esp)
  1019a9:	e8 d2 e6 ff ff       	call   100080 <bwrite>
  brelse(bp);
  1019ae:	89 1c 24             	mov    %ebx,(%esp)
  1019b1:	e8 4a e6 ff ff       	call   100000 <brelse>
  struct superblock sb;
  int bi, m;

  bzero(dev, b);

  readsb(dev, &sb);
  1019b6:	89 f8                	mov    %edi,%eax
  1019b8:	8d 55 e8             	lea    -0x18(%ebp),%edx
  1019bb:	e8 a0 f8 ff ff       	call   101260 <readsb>
  bp = bread(dev, BBLOCK(b, sb.ninodes));
  1019c0:	8b 45 f0             	mov    -0x10(%ebp),%eax
  1019c3:	89 f2                	mov    %esi,%edx
  1019c5:	c1 ea 0c             	shr    $0xc,%edx
  1019c8:	89 3c 24             	mov    %edi,(%esp)
  bi = b % BPB;
  1019cb:	89 f7                	mov    %esi,%edi
  m = 1 << (bi % 8);
  1019cd:	83 e6 07             	and    $0x7,%esi

  bzero(dev, b);

  readsb(dev, &sb);
  bp = bread(dev, BBLOCK(b, sb.ninodes));
  bi = b % BPB;
  1019d0:	81 e7 ff 0f 00 00    	and    $0xfff,%edi
  int bi, m;

  bzero(dev, b);

  readsb(dev, &sb);
  bp = bread(dev, BBLOCK(b, sb.ninodes));
  1019d6:	c1 e8 03             	shr    $0x3,%eax
  1019d9:	8d 44 10 03          	lea    0x3(%eax,%edx,1),%eax
  1019dd:	89 44 24 04          	mov    %eax,0x4(%esp)
  bi = b % BPB;
  m = 1 << (bi % 8);
  if((bp->data[bi/8] & m) == 0)
  1019e1:	c1 ff 03             	sar    $0x3,%edi
  int bi, m;

  bzero(dev, b);

  readsb(dev, &sb);
  bp = bread(dev, BBLOCK(b, sb.ninodes));
  1019e4:	e8 c7 e6 ff ff       	call   1000b0 <bread>
  bi = b % BPB;
  m = 1 << (bi % 8);
  1019e9:	89 f1                	mov    %esi,%ecx
  1019eb:	ba 01 00 00 00       	mov    $0x1,%edx
  1019f0:	d3 e2                	shl    %cl,%edx
  if((bp->data[bi/8] & m) == 0)
  1019f2:	0f b6 74 38 18       	movzbl 0x18(%eax,%edi,1),%esi
  int bi, m;

  bzero(dev, b);

  readsb(dev, &sb);
  bp = bread(dev, BBLOCK(b, sb.ninodes));
  1019f7:	89 c3                	mov    %eax,%ebx
  bi = b % BPB;
  m = 1 << (bi % 8);
  if((bp->data[bi/8] & m) == 0)
  1019f9:	89 f1                	mov    %esi,%ecx
  1019fb:	0f b6 c1             	movzbl %cl,%eax
  1019fe:	85 d0                	test   %edx,%eax
  101a00:	74 22                	je     101a24 <bfree+0xb4>
    panic("freeing free block");
  bp->data[bi/8] &= ~m;  // Mark block free on disk.
  101a02:	89 d0                	mov    %edx,%eax
  101a04:	f7 d0                	not    %eax
  101a06:	21 f0                	and    %esi,%eax
  101a08:	88 44 3b 18          	mov    %al,0x18(%ebx,%edi,1)
  bwrite(bp);
  101a0c:	89 1c 24             	mov    %ebx,(%esp)
  101a0f:	e8 6c e6 ff ff       	call   100080 <bwrite>
  brelse(bp);
  101a14:	89 1c 24             	mov    %ebx,(%esp)
  101a17:	e8 e4 e5 ff ff       	call   100000 <brelse>
}
  101a1c:	83 c4 1c             	add    $0x1c,%esp
  101a1f:	5b                   	pop    %ebx
  101a20:	5e                   	pop    %esi
  101a21:	5f                   	pop    %edi
  101a22:	5d                   	pop    %ebp
  101a23:	c3                   	ret    
  readsb(dev, &sb);
  bp = bread(dev, BBLOCK(b, sb.ninodes));
  bi = b % BPB;
  m = 1 << (bi % 8);
  if((bp->data[bi/8] & m) == 0)
    panic("freeing free block");
  101a24:	c7 04 24 97 62 10 00 	movl   $0x106297,(%esp)
  101a2b:	e8 40 ef ff ff       	call   100970 <panic>

00101a30 <iput>:
}

// Caller holds reference to unlocked ip.  Drop reference.
void
iput(struct inode *ip)
{
  101a30:	55                   	push   %ebp
  101a31:	89 e5                	mov    %esp,%ebp
  101a33:	57                   	push   %edi
  101a34:	56                   	push   %esi
  101a35:	53                   	push   %ebx
  101a36:	83 ec 0c             	sub    $0xc,%esp
  101a39:	8b 75 08             	mov    0x8(%ebp),%esi
  acquire(&icache.lock);
  101a3c:	c7 04 24 80 a3 10 00 	movl   $0x10a380,(%esp)
  101a43:	e8 f8 26 00 00       	call   104140 <acquire>
  if(ip->ref == 1 && (ip->flags & I_VALID) && ip->nlink == 0){
  101a48:	8b 46 08             	mov    0x8(%esi),%eax
  101a4b:	83 f8 01             	cmp    $0x1,%eax
  101a4e:	0f 85 a4 00 00 00    	jne    101af8 <iput+0xc8>
  101a54:	8b 56 0c             	mov    0xc(%esi),%edx
  101a57:	f6 c2 02             	test   $0x2,%dl
  101a5a:	0f 84 98 00 00 00    	je     101af8 <iput+0xc8>
  101a60:	66 83 7e 16 00       	cmpw   $0x0,0x16(%esi)
  101a65:	0f 85 8d 00 00 00    	jne    101af8 <iput+0xc8>
    // inode is no longer used: truncate and free inode.
    if(ip->flags & I_BUSY)
  101a6b:	f6 c2 01             	test   $0x1,%dl
  101a6e:	66 90                	xchg   %ax,%ax
  101a70:	0f 85 07 01 00 00    	jne    101b7d <iput+0x14d>
      panic("iput busy");
    ip->flags |= I_BUSY;
  101a76:	83 ca 01             	or     $0x1,%edx
    release(&icache.lock);
  101a79:	89 f3                	mov    %esi,%ebx
  acquire(&icache.lock);
  if(ip->ref == 1 && (ip->flags & I_VALID) && ip->nlink == 0){
    // inode is no longer used: truncate and free inode.
    if(ip->flags & I_BUSY)
      panic("iput busy");
    ip->flags |= I_BUSY;
  101a7b:	89 56 0c             	mov    %edx,0xc(%esi)
  101a7e:	8d 7e 30             	lea    0x30(%esi),%edi
    release(&icache.lock);
  101a81:	c7 04 24 80 a3 10 00 	movl   $0x10a380,(%esp)
  101a88:	e8 73 26 00 00       	call   104100 <release>
  101a8d:	eb 08                	jmp    101a97 <iput+0x67>
  101a8f:	90                   	nop    
  uint *a;

  for(i = 0; i < NDIRECT; i++){
    if(ip->addrs[i]){
      bfree(ip->dev, ip->addrs[i]);
      ip->addrs[i] = 0;
  101a90:	83 c3 04             	add    $0x4,%ebx
{
  int i, j;
  struct buf *bp;
  uint *a;

  for(i = 0; i < NDIRECT; i++){
  101a93:	39 fb                	cmp    %edi,%ebx
  101a95:	74 20                	je     101ab7 <iput+0x87>
    if(ip->addrs[i]){
  101a97:	8b 53 1c             	mov    0x1c(%ebx),%edx
  101a9a:	85 d2                	test   %edx,%edx
  101a9c:	8d 74 26 00          	lea    0x0(%esi,%eiz,1),%esi
  101aa0:	74 ee                	je     101a90 <iput+0x60>
      bfree(ip->dev, ip->addrs[i]);
  101aa2:	8b 06                	mov    (%esi),%eax
  101aa4:	e8 c7 fe ff ff       	call   101970 <bfree>
      ip->addrs[i] = 0;
  101aa9:	c7 43 1c 00 00 00 00 	movl   $0x0,0x1c(%ebx)
  101ab0:	83 c3 04             	add    $0x4,%ebx
{
  int i, j;
  struct buf *bp;
  uint *a;

  for(i = 0; i < NDIRECT; i++){
  101ab3:	39 fb                	cmp    %edi,%ebx
  101ab5:	75 e0                	jne    101a97 <iput+0x67>
      bfree(ip->dev, ip->addrs[i]);
      ip->addrs[i] = 0;
    }
  }
  
  if(ip->addrs[INDIRECT]){
  101ab7:	8b 46 4c             	mov    0x4c(%esi),%eax
  101aba:	85 c0                	test   %eax,%eax
  101abc:	75 5a                	jne    101b18 <iput+0xe8>
    }
    brelse(bp);
    ip->addrs[INDIRECT] = 0;
  }

  ip->size = 0;
  101abe:	c7 46 18 00 00 00 00 	movl   $0x0,0x18(%esi)
  iupdate(ip);
  101ac5:	89 34 24             	mov    %esi,(%esp)
  101ac8:	e8 c3 fa ff ff       	call   101590 <iupdate>
    if(ip->flags & I_BUSY)
      panic("iput busy");
    ip->flags |= I_BUSY;
    release(&icache.lock);
    itrunc(ip);
    ip->type = 0;
  101acd:	66 c7 46 10 00 00    	movw   $0x0,0x10(%esi)
    iupdate(ip);
  101ad3:	89 34 24             	mov    %esi,(%esp)
  101ad6:	e8 b5 fa ff ff       	call   101590 <iupdate>
    acquire(&icache.lock);
  101adb:	c7 04 24 80 a3 10 00 	movl   $0x10a380,(%esp)
  101ae2:	e8 59 26 00 00       	call   104140 <acquire>
    ip->flags &= ~I_BUSY;
  101ae7:	83 66 0c fe          	andl   $0xfffffffe,0xc(%esi)
    wakeup(ip);
  101aeb:	89 34 24             	mov    %esi,(%esp)
  101aee:	e8 4d 19 00 00       	call   103440 <wakeup>
  101af3:	8b 46 08             	mov    0x8(%esi),%eax
  101af6:	66 90                	xchg   %ax,%ax
  }
  ip->ref--;
  101af8:	83 e8 01             	sub    $0x1,%eax
  101afb:	89 46 08             	mov    %eax,0x8(%esi)
  release(&icache.lock);
  101afe:	c7 45 08 80 a3 10 00 	movl   $0x10a380,0x8(%ebp)
}
  101b05:	83 c4 0c             	add    $0xc,%esp
  101b08:	5b                   	pop    %ebx
  101b09:	5e                   	pop    %esi
  101b0a:	5f                   	pop    %edi
  101b0b:	5d                   	pop    %ebp
    acquire(&icache.lock);
    ip->flags &= ~I_BUSY;
    wakeup(ip);
  }
  ip->ref--;
  release(&icache.lock);
  101b0c:	e9 ef 25 00 00       	jmp    104100 <release>
  101b11:	8d b4 26 00 00 00 00 	lea    0x0(%esi,%eiz,1),%esi
      ip->addrs[i] = 0;
    }
  }
  
  if(ip->addrs[INDIRECT]){
    bp = bread(ip->dev, ip->addrs[INDIRECT]);
  101b18:	89 44 24 04          	mov    %eax,0x4(%esp)
  101b1c:	8b 06                	mov    (%esi),%eax
    a = (uint*)bp->data;
  101b1e:	31 db                	xor    %ebx,%ebx
      ip->addrs[i] = 0;
    }
  }
  
  if(ip->addrs[INDIRECT]){
    bp = bread(ip->dev, ip->addrs[INDIRECT]);
  101b20:	89 04 24             	mov    %eax,(%esp)
  101b23:	e8 88 e5 ff ff       	call   1000b0 <bread>
    a = (uint*)bp->data;
  101b28:	89 c7                	mov    %eax,%edi
      ip->addrs[i] = 0;
    }
  }
  
  if(ip->addrs[INDIRECT]){
    bp = bread(ip->dev, ip->addrs[INDIRECT]);
  101b2a:	89 45 f0             	mov    %eax,-0x10(%ebp)
    a = (uint*)bp->data;
  101b2d:	83 c7 18             	add    $0x18,%edi
  101b30:	31 c0                	xor    %eax,%eax
  101b32:	eb 11                	jmp    101b45 <iput+0x115>
  101b34:	8d 74 26 00          	lea    0x0(%esi,%eiz,1),%esi
    for(j = 0; j < NINDIRECT; j++){
  101b38:	83 c3 01             	add    $0x1,%ebx
  101b3b:	81 fb 80 00 00 00    	cmp    $0x80,%ebx
  101b41:	89 d8                	mov    %ebx,%eax
  101b43:	74 1b                	je     101b60 <iput+0x130>
      if(a[j])
  101b45:	8b 14 87             	mov    (%edi,%eax,4),%edx
  101b48:	85 d2                	test   %edx,%edx
  101b4a:	74 ec                	je     101b38 <iput+0x108>
        bfree(ip->dev, a[j]);
  101b4c:	8b 06                	mov    (%esi),%eax
  101b4e:	e8 1d fe ff ff       	call   101970 <bfree>
  101b53:	90                   	nop    
  101b54:	8d 74 26 00          	lea    0x0(%esi,%eiz,1),%esi
  101b58:	eb de                	jmp    101b38 <iput+0x108>
  101b5a:	8d b6 00 00 00 00    	lea    0x0(%esi),%esi
    }
    brelse(bp);
  101b60:	8b 45 f0             	mov    -0x10(%ebp),%eax
  101b63:	89 04 24             	mov    %eax,(%esp)
  101b66:	e8 95 e4 ff ff       	call   100000 <brelse>
    ip->addrs[INDIRECT] = 0;
  101b6b:	c7 46 4c 00 00 00 00 	movl   $0x0,0x4c(%esi)
  101b72:	8d b6 00 00 00 00    	lea    0x0(%esi),%esi
  101b78:	e9 41 ff ff ff       	jmp    101abe <iput+0x8e>
{
  acquire(&icache.lock);
  if(ip->ref == 1 && (ip->flags & I_VALID) && ip->nlink == 0){
    // inode is no longer used: truncate and free inode.
    if(ip->flags & I_BUSY)
      panic("iput busy");
  101b7d:	c7 04 24 aa 62 10 00 	movl   $0x1062aa,(%esp)
  101b84:	e8 e7 ed ff ff       	call   100970 <panic>
  101b89:	8d b4 26 00 00 00 00 	lea    0x0(%esi,%eiz,1),%esi

00101b90 <dirlink>:
}

// Write a new directory entry (name, ino) into the directory dp.
int
dirlink(struct inode *dp, char *name, uint ino)
{
  101b90:	55                   	push   %ebp
  101b91:	89 e5                	mov    %esp,%ebp
  101b93:	57                   	push   %edi
  101b94:	56                   	push   %esi
  101b95:	53                   	push   %ebx
  101b96:	83 ec 2c             	sub    $0x2c,%esp
  101b99:	8b 7d 08             	mov    0x8(%ebp),%edi
  int off;
  struct dirent de;
  struct inode *ip;

  // Check that name is not present.
  if((ip = dirlookup(dp, name, 0)) != 0){
  101b9c:	8b 45 0c             	mov    0xc(%ebp),%eax
  101b9f:	c7 44 24 08 00 00 00 	movl   $0x0,0x8(%esp)
  101ba6:	00 
  101ba7:	89 3c 24             	mov    %edi,(%esp)
  101baa:	89 44 24 04          	mov    %eax,0x4(%esp)
  101bae:	e8 dd fb ff ff       	call   101790 <dirlookup>
  101bb3:	85 c0                	test   %eax,%eax
  101bb5:	0f 85 98 00 00 00    	jne    101c53 <dirlink+0xc3>
    iput(ip);
    return -1;
  }

  // Look for an empty dirent.
  for(off = 0; off < dp->size; off += sizeof(de)){
  101bbb:	8b 47 18             	mov    0x18(%edi),%eax
  101bbe:	85 c0                	test   %eax,%eax
  101bc0:	0f 84 9c 00 00 00    	je     101c62 <dirlink+0xd2>
  struct inode *ip;

  // Check that name is not present.
  if((ip = dirlookup(dp, name, 0)) != 0){
    iput(ip);
    return -1;
  101bc6:	8d 75 e4             	lea    -0x1c(%ebp),%esi
  101bc9:	31 db                	xor    %ebx,%ebx
  101bcb:	eb 0b                	jmp    101bd8 <dirlink+0x48>
  101bcd:	8d 76 00             	lea    0x0(%esi),%esi
  }

  // Look for an empty dirent.
  for(off = 0; off < dp->size; off += sizeof(de)){
  101bd0:	83 c3 10             	add    $0x10,%ebx
  101bd3:	39 5f 18             	cmp    %ebx,0x18(%edi)
  101bd6:	76 24                	jbe    101bfc <dirlink+0x6c>
    if(readi(dp, (char*)&de, off, sizeof(de)) != sizeof(de))
  101bd8:	c7 44 24 0c 10 00 00 	movl   $0x10,0xc(%esp)
  101bdf:	00 
  101be0:	89 5c 24 08          	mov    %ebx,0x8(%esp)
  101be4:	89 74 24 04          	mov    %esi,0x4(%esp)
  101be8:	89 3c 24             	mov    %edi,(%esp)
  101beb:	e8 90 f8 ff ff       	call   101480 <readi>
  101bf0:	83 f8 10             	cmp    $0x10,%eax
  101bf3:	75 52                	jne    101c47 <dirlink+0xb7>
      panic("dirlink read");
    if(de.inum == 0)
  101bf5:	66 83 7d e4 00       	cmpw   $0x0,-0x1c(%ebp)
  101bfa:	75 d4                	jne    101bd0 <dirlink+0x40>
      break;
  }

  strncpy(de.name, name, DIRSIZ);
  101bfc:	8b 45 0c             	mov    0xc(%ebp),%eax
  101bff:	c7 44 24 08 0e 00 00 	movl   $0xe,0x8(%esp)
  101c06:	00 
  101c07:	89 44 24 04          	mov    %eax,0x4(%esp)
  101c0b:	8d 45 e6             	lea    -0x1a(%ebp),%eax
  101c0e:	89 04 24             	mov    %eax,(%esp)
  101c11:	e8 ea 26 00 00       	call   104300 <strncpy>
  de.inum = ino;
  101c16:	0f b7 45 10          	movzwl 0x10(%ebp),%eax
  if(writei(dp, (char*)&de, off, sizeof(de)) != sizeof(de))
  101c1a:	c7 44 24 0c 10 00 00 	movl   $0x10,0xc(%esp)
  101c21:	00 
  101c22:	89 5c 24 08          	mov    %ebx,0x8(%esp)
  101c26:	89 74 24 04          	mov    %esi,0x4(%esp)
    if(de.inum == 0)
      break;
  }

  strncpy(de.name, name, DIRSIZ);
  de.inum = ino;
  101c2a:	66 89 45 e4          	mov    %ax,-0x1c(%ebp)
  if(writei(dp, (char*)&de, off, sizeof(de)) != sizeof(de))
  101c2e:	89 3c 24             	mov    %edi,(%esp)
  101c31:	e8 ea f9 ff ff       	call   101620 <writei>
    panic("dirlink");
  101c36:	31 d2                	xor    %edx,%edx
      break;
  }

  strncpy(de.name, name, DIRSIZ);
  de.inum = ino;
  if(writei(dp, (char*)&de, off, sizeof(de)) != sizeof(de))
  101c38:	83 f8 10             	cmp    $0x10,%eax
  101c3b:	75 2c                	jne    101c69 <dirlink+0xd9>
    panic("dirlink");
  
  return 0;
}
  101c3d:	83 c4 2c             	add    $0x2c,%esp
  101c40:	89 d0                	mov    %edx,%eax
  101c42:	5b                   	pop    %ebx
  101c43:	5e                   	pop    %esi
  101c44:	5f                   	pop    %edi
  101c45:	5d                   	pop    %ebp
  101c46:	c3                   	ret    
  }

  // Look for an empty dirent.
  for(off = 0; off < dp->size; off += sizeof(de)){
    if(readi(dp, (char*)&de, off, sizeof(de)) != sizeof(de))
      panic("dirlink read");
  101c47:	c7 04 24 b4 62 10 00 	movl   $0x1062b4,(%esp)
  101c4e:	e8 1d ed ff ff       	call   100970 <panic>
  struct dirent de;
  struct inode *ip;

  // Check that name is not present.
  if((ip = dirlookup(dp, name, 0)) != 0){
    iput(ip);
  101c53:	89 04 24             	mov    %eax,(%esp)
  101c56:	e8 d5 fd ff ff       	call   101a30 <iput>
  101c5b:	ba ff ff ff ff       	mov    $0xffffffff,%edx
  101c60:	eb db                	jmp    101c3d <dirlink+0xad>
    return -1;
  }

  // Look for an empty dirent.
  for(off = 0; off < dp->size; off += sizeof(de)){
  101c62:	8d 75 e4             	lea    -0x1c(%ebp),%esi
  101c65:	31 db                	xor    %ebx,%ebx
  101c67:	eb 93                	jmp    101bfc <dirlink+0x6c>
  }

  strncpy(de.name, name, DIRSIZ);
  de.inum = ino;
  if(writei(dp, (char*)&de, off, sizeof(de)) != sizeof(de))
    panic("dirlink");
  101c69:	c7 04 24 c1 62 10 00 	movl   $0x1062c1,(%esp)
  101c70:	e8 fb ec ff ff       	call   100970 <panic>
  101c75:	8d 74 26 00          	lea    0x0(%esi,%eiz,1),%esi
  101c79:	8d bc 27 00 00 00 00 	lea    0x0(%edi,%eiz,1),%edi

00101c80 <iunlock>:
}

// Unlock the given inode.
void
iunlock(struct inode *ip)
{
  101c80:	55                   	push   %ebp
  101c81:	89 e5                	mov    %esp,%ebp
  101c83:	53                   	push   %ebx
  101c84:	83 ec 04             	sub    $0x4,%esp
  101c87:	8b 5d 08             	mov    0x8(%ebp),%ebx
  if(ip == 0 || !(ip->flags & I_BUSY) || ip->ref < 1)
  101c8a:	85 db                	test   %ebx,%ebx
  101c8c:	74 3a                	je     101cc8 <iunlock+0x48>
  101c8e:	f6 43 0c 01          	testb  $0x1,0xc(%ebx)
  101c92:	74 34                	je     101cc8 <iunlock+0x48>
  101c94:	8b 43 08             	mov    0x8(%ebx),%eax
  101c97:	85 c0                	test   %eax,%eax
  101c99:	7e 2d                	jle    101cc8 <iunlock+0x48>
    panic("iunlock");

  acquire(&icache.lock);
  101c9b:	c7 04 24 80 a3 10 00 	movl   $0x10a380,(%esp)
  101ca2:	e8 99 24 00 00       	call   104140 <acquire>
  ip->flags &= ~I_BUSY;
  101ca7:	83 63 0c fe          	andl   $0xfffffffe,0xc(%ebx)
  wakeup(ip);
  101cab:	89 1c 24             	mov    %ebx,(%esp)
  101cae:	e8 8d 17 00 00       	call   103440 <wakeup>
  release(&icache.lock);
  101cb3:	c7 45 08 80 a3 10 00 	movl   $0x10a380,0x8(%ebp)
}
  101cba:	83 c4 04             	add    $0x4,%esp
  101cbd:	5b                   	pop    %ebx
  101cbe:	5d                   	pop    %ebp
    panic("iunlock");

  acquire(&icache.lock);
  ip->flags &= ~I_BUSY;
  wakeup(ip);
  release(&icache.lock);
  101cbf:	e9 3c 24 00 00       	jmp    104100 <release>
  101cc4:	8d 74 26 00          	lea    0x0(%esi,%eiz,1),%esi
// Unlock the given inode.
void
iunlock(struct inode *ip)
{
  if(ip == 0 || !(ip->flags & I_BUSY) || ip->ref < 1)
    panic("iunlock");
  101cc8:	c7 04 24 c9 62 10 00 	movl   $0x1062c9,(%esp)
  101ccf:	e8 9c ec ff ff       	call   100970 <panic>
  101cd4:	8d b6 00 00 00 00    	lea    0x0(%esi),%esi
  101cda:	8d bf 00 00 00 00    	lea    0x0(%edi),%edi

00101ce0 <iunlockput>:
}

// Common idiom: unlock, then put.
void
iunlockput(struct inode *ip)
{
  101ce0:	55                   	push   %ebp
  101ce1:	89 e5                	mov    %esp,%ebp
  101ce3:	53                   	push   %ebx
  101ce4:	83 ec 04             	sub    $0x4,%esp
  101ce7:	8b 5d 08             	mov    0x8(%ebp),%ebx
  iunlock(ip);
  101cea:	89 1c 24             	mov    %ebx,(%esp)
  101ced:	e8 8e ff ff ff       	call   101c80 <iunlock>
  iput(ip);
  101cf2:	89 5d 08             	mov    %ebx,0x8(%ebp)
}
  101cf5:	83 c4 04             	add    $0x4,%esp
  101cf8:	5b                   	pop    %ebx
  101cf9:	5d                   	pop    %ebp
// Common idiom: unlock, then put.
void
iunlockput(struct inode *ip)
{
  iunlock(ip);
  iput(ip);
  101cfa:	e9 31 fd ff ff       	jmp    101a30 <iput>
  101cff:	90                   	nop    

00101d00 <ilock>:
}

// Lock the given inode.
void
ilock(struct inode *ip)
{
  101d00:	55                   	push   %ebp
  101d01:	89 e5                	mov    %esp,%ebp
  101d03:	56                   	push   %esi
  101d04:	53                   	push   %ebx
  101d05:	83 ec 10             	sub    $0x10,%esp
  101d08:	8b 75 08             	mov    0x8(%ebp),%esi
  struct buf *bp;
  struct dinode *dip;

  if(ip == 0 || ip->ref < 1)
  101d0b:	85 f6                	test   %esi,%esi
  101d0d:	74 59                	je     101d68 <ilock+0x68>
  101d0f:	8b 46 08             	mov    0x8(%esi),%eax
  101d12:	85 c0                	test   %eax,%eax
  101d14:	7e 52                	jle    101d68 <ilock+0x68>
    panic("ilock");

  acquire(&icache.lock);
  101d16:	c7 04 24 80 a3 10 00 	movl   $0x10a380,(%esp)
  101d1d:	e8 1e 24 00 00       	call   104140 <acquire>
  while(ip->flags & I_BUSY)
  101d22:	8b 46 0c             	mov    0xc(%esi),%eax
  101d25:	a8 01                	test   $0x1,%al
  101d27:	74 1e                	je     101d47 <ilock+0x47>
  101d29:	8d b4 26 00 00 00 00 	lea    0x0(%esi,%eiz,1),%esi
    sleep(ip, &icache.lock);
  101d30:	c7 44 24 04 80 a3 10 	movl   $0x10a380,0x4(%esp)
  101d37:	00 
  101d38:	89 34 24             	mov    %esi,(%esp)
  101d3b:	e8 e0 19 00 00       	call   103720 <sleep>

  if(ip == 0 || ip->ref < 1)
    panic("ilock");

  acquire(&icache.lock);
  while(ip->flags & I_BUSY)
  101d40:	8b 46 0c             	mov    0xc(%esi),%eax
  101d43:	a8 01                	test   $0x1,%al
  101d45:	75 e9                	jne    101d30 <ilock+0x30>
    sleep(ip, &icache.lock);
  ip->flags |= I_BUSY;
  101d47:	83 c8 01             	or     $0x1,%eax
  101d4a:	89 46 0c             	mov    %eax,0xc(%esi)
  release(&icache.lock);
  101d4d:	c7 04 24 80 a3 10 00 	movl   $0x10a380,(%esp)
  101d54:	e8 a7 23 00 00       	call   104100 <release>

  if(!(ip->flags & I_VALID)){
  101d59:	f6 46 0c 02          	testb  $0x2,0xc(%esi)
  101d5d:	74 19                	je     101d78 <ilock+0x78>
    brelse(bp);
    ip->flags |= I_VALID;
    if(ip->type == 0)
      panic("ilock: no type");
  }
}
  101d5f:	83 c4 10             	add    $0x10,%esp
  101d62:	5b                   	pop    %ebx
  101d63:	5e                   	pop    %esi
  101d64:	5d                   	pop    %ebp
  101d65:	c3                   	ret    
  101d66:	66 90                	xchg   %ax,%ax
{
  struct buf *bp;
  struct dinode *dip;

  if(ip == 0 || ip->ref < 1)
    panic("ilock");
  101d68:	c7 04 24 d1 62 10 00 	movl   $0x1062d1,(%esp)
  101d6f:	e8 fc eb ff ff       	call   100970 <panic>
  101d74:	8d 74 26 00          	lea    0x0(%esi,%eiz,1),%esi
    sleep(ip, &icache.lock);
  ip->flags |= I_BUSY;
  release(&icache.lock);

  if(!(ip->flags & I_VALID)){
    bp = bread(ip->dev, IBLOCK(ip->inum));
  101d78:	8b 46 04             	mov    0x4(%esi),%eax
  101d7b:	c1 e8 03             	shr    $0x3,%eax
  101d7e:	83 c0 02             	add    $0x2,%eax
  101d81:	89 44 24 04          	mov    %eax,0x4(%esp)
  101d85:	8b 06                	mov    (%esi),%eax
  101d87:	89 04 24             	mov    %eax,(%esp)
  101d8a:	e8 21 e3 ff ff       	call   1000b0 <bread>
  101d8f:	89 c3                	mov    %eax,%ebx
    dip = (struct dinode*)bp->data + ip->inum%IPB;
  101d91:	8b 46 04             	mov    0x4(%esi),%eax
  101d94:	83 e0 07             	and    $0x7,%eax
  101d97:	c1 e0 06             	shl    $0x6,%eax
  101d9a:	8d 44 03 18          	lea    0x18(%ebx,%eax,1),%eax
    ip->type = dip->type;
  101d9e:	0f b7 10             	movzwl (%eax),%edx
  101da1:	66 89 56 10          	mov    %dx,0x10(%esi)
    ip->major = dip->major;
  101da5:	0f b7 50 02          	movzwl 0x2(%eax),%edx
  101da9:	66 89 56 12          	mov    %dx,0x12(%esi)
    ip->minor = dip->minor;
  101dad:	0f b7 50 04          	movzwl 0x4(%eax),%edx
  101db1:	66 89 56 14          	mov    %dx,0x14(%esi)
    ip->nlink = dip->nlink;
  101db5:	0f b7 50 06          	movzwl 0x6(%eax),%edx
  101db9:	66 89 56 16          	mov    %dx,0x16(%esi)
    ip->size = dip->size;
  101dbd:	8b 50 08             	mov    0x8(%eax),%edx
    memmove(ip->addrs, dip->addrs, sizeof(ip->addrs));
  101dc0:	83 c0 0c             	add    $0xc,%eax
    dip = (struct dinode*)bp->data + ip->inum%IPB;
    ip->type = dip->type;
    ip->major = dip->major;
    ip->minor = dip->minor;
    ip->nlink = dip->nlink;
    ip->size = dip->size;
  101dc3:	89 56 18             	mov    %edx,0x18(%esi)
    memmove(ip->addrs, dip->addrs, sizeof(ip->addrs));
  101dc6:	89 44 24 04          	mov    %eax,0x4(%esp)
  101dca:	8d 46 1c             	lea    0x1c(%esi),%eax
  101dcd:	c7 44 24 08 34 00 00 	movl   $0x34,0x8(%esp)
  101dd4:	00 
  101dd5:	89 04 24             	mov    %eax,(%esp)
  101dd8:	e8 63 24 00 00       	call   104240 <memmove>
    brelse(bp);
  101ddd:	89 1c 24             	mov    %ebx,(%esp)
  101de0:	e8 1b e2 ff ff       	call   100000 <brelse>
    ip->flags |= I_VALID;
  101de5:	83 4e 0c 02          	orl    $0x2,0xc(%esi)
    if(ip->type == 0)
  101de9:	66 83 7e 10 00       	cmpw   $0x0,0x10(%esi)
  101dee:	0f 85 6b ff ff ff    	jne    101d5f <ilock+0x5f>
      panic("ilock: no type");
  101df4:	c7 04 24 d7 62 10 00 	movl   $0x1062d7,(%esp)
  101dfb:	e8 70 eb ff ff       	call   100970 <panic>

00101e00 <_namei>:
// Look up and return the inode for a path name.
// If parent != 0, return the inode for the parent and copy the final
// path element into name, which must have room for DIRSIZ bytes.
static struct inode*
_namei(char *path, int parent, char *name)
{
  101e00:	55                   	push   %ebp
  101e01:	89 e5                	mov    %esp,%ebp
  101e03:	57                   	push   %edi
  101e04:	56                   	push   %esi
  101e05:	53                   	push   %ebx
  101e06:	89 c3                	mov    %eax,%ebx
  101e08:	83 ec 1c             	sub    $0x1c,%esp
  101e0b:	89 55 e8             	mov    %edx,-0x18(%ebp)
  101e0e:	89 4d e4             	mov    %ecx,-0x1c(%ebp)
  struct inode *ip, *next;

  if(*path == '/')
  101e11:	80 38 2f             	cmpb   $0x2f,(%eax)
  101e14:	0f 84 30 01 00 00    	je     101f4a <_namei+0x14a>
    ip = iget(ROOTDEV, 1);
  else
    ip = idup(cp->cwd);
  101e1a:	e8 a1 16 00 00       	call   1034c0 <curproc>
  101e1f:	8b 40 60             	mov    0x60(%eax),%eax
  101e22:	89 04 24             	mov    %eax,(%esp)
  101e25:	e8 36 f3 ff ff       	call   101160 <idup>
  101e2a:	89 45 ec             	mov    %eax,-0x14(%ebp)
  101e2d:	eb 04                	jmp    101e33 <_namei+0x33>
  101e2f:	90                   	nop    
{
  char *s;
  int len;

  while(*path == '/')
    path++;
  101e30:	83 c3 01             	add    $0x1,%ebx
skipelem(char *path, char *name)
{
  char *s;
  int len;

  while(*path == '/')
  101e33:	0f b6 03             	movzbl (%ebx),%eax
  101e36:	3c 2f                	cmp    $0x2f,%al
  101e38:	74 f6                	je     101e30 <_namei+0x30>
    path++;
  if(*path == 0)
  101e3a:	84 c0                	test   %al,%al
skipelem(char *path, char *name)
{
  char *s;
  int len;

  while(*path == '/')
  101e3c:	89 de                	mov    %ebx,%esi
    path++;
  if(*path == 0)
  101e3e:	75 1e                	jne    101e5e <_namei+0x5e>
      return 0;
    }
    iunlockput(ip);
    ip = next;
  }
  if(parent){
  101e40:	8b 45 e8             	mov    -0x18(%ebp),%eax
  101e43:	85 c0                	test   %eax,%eax
  101e45:	0f 85 2c 01 00 00    	jne    101f77 <_namei+0x177>
    iput(ip);
    return 0;
  }
  return ip;
}
  101e4b:	8b 45 ec             	mov    -0x14(%ebp),%eax
  101e4e:	83 c4 1c             	add    $0x1c,%esp
  101e51:	5b                   	pop    %ebx
  101e52:	5e                   	pop    %esi
  101e53:	5f                   	pop    %edi
  101e54:	5d                   	pop    %ebp
  101e55:	c3                   	ret    
  101e56:	66 90                	xchg   %ax,%ax
    path++;
  if(*path == 0)
    return 0;
  s = path;
  while(*path != '/' && *path != 0)
    path++;
  101e58:	83 c6 01             	add    $0x1,%esi
  while(*path == '/')
    path++;
  if(*path == 0)
    return 0;
  s = path;
  while(*path != '/' && *path != 0)
  101e5b:	0f b6 06             	movzbl (%esi),%eax
  101e5e:	3c 2f                	cmp    $0x2f,%al
  101e60:	74 04                	je     101e66 <_namei+0x66>
  101e62:	84 c0                	test   %al,%al
  101e64:	75 f2                	jne    101e58 <_namei+0x58>
    path++;
  len = path - s;
  101e66:	89 f2                	mov    %esi,%edx
  while(*path == '/')
    path++;
  if(*path == 0)
    return 0;
  s = path;
  while(*path != '/' && *path != 0)
  101e68:	89 f7                	mov    %esi,%edi
    path++;
  len = path - s;
  101e6a:	29 da                	sub    %ebx,%edx
  if(len >= DIRSIZ)
  101e6c:	83 fa 0d             	cmp    $0xd,%edx
  if(*path == 0)
    return 0;
  s = path;
  while(*path != '/' && *path != 0)
    path++;
  len = path - s;
  101e6f:	89 55 f0             	mov    %edx,-0x10(%ebp)
  if(len >= DIRSIZ)
  101e72:	0f 8e 90 00 00 00    	jle    101f08 <_namei+0x108>
    memmove(name, s, DIRSIZ);
  101e78:	c7 44 24 08 0e 00 00 	movl   $0xe,0x8(%esp)
  101e7f:	00 
  101e80:	89 5c 24 04          	mov    %ebx,0x4(%esp)
  101e84:	8b 45 e4             	mov    -0x1c(%ebp),%eax
  101e87:	89 04 24             	mov    %eax,(%esp)
  101e8a:	e8 b1 23 00 00       	call   104240 <memmove>
  else {
    memmove(name, s, len);
    name[len] = 0;
  }
  while(*path == '/')
  101e8f:	80 3e 2f             	cmpb   $0x2f,(%esi)
  101e92:	75 0c                	jne    101ea0 <_namei+0xa0>
  101e94:	8d 74 26 00          	lea    0x0(%esi,%eiz,1),%esi
    path++;
  101e98:	83 c7 01             	add    $0x1,%edi
    memmove(name, s, DIRSIZ);
  else {
    memmove(name, s, len);
    name[len] = 0;
  }
  while(*path == '/')
  101e9b:	80 3f 2f             	cmpb   $0x2f,(%edi)
  101e9e:	74 f8                	je     101e98 <_namei+0x98>
  if(*path == '/')
    ip = iget(ROOTDEV, 1);
  else
    ip = idup(cp->cwd);

  while((path = skipelem(path, name)) != 0){
  101ea0:	85 ff                	test   %edi,%edi
  101ea2:	8d b6 00 00 00 00    	lea    0x0(%esi),%esi
  101ea8:	74 96                	je     101e40 <_namei+0x40>
    ilock(ip);
  101eaa:	8b 45 ec             	mov    -0x14(%ebp),%eax
  101ead:	89 04 24             	mov    %eax,(%esp)
  101eb0:	e8 4b fe ff ff       	call   101d00 <ilock>
    if(ip->type != T_DIR){
  101eb5:	8b 55 ec             	mov    -0x14(%ebp),%edx
  101eb8:	66 83 7a 10 01       	cmpw   $0x1,0x10(%edx)
  101ebd:	75 71                	jne    101f30 <_namei+0x130>
      iunlockput(ip);
      return 0;
    }
    if(parent && *path == '\0'){
  101ebf:	8b 45 e8             	mov    -0x18(%ebp),%eax
  101ec2:	85 c0                	test   %eax,%eax
  101ec4:	74 09                	je     101ecf <_namei+0xcf>
  101ec6:	80 3f 00             	cmpb   $0x0,(%edi)
  101ec9:	0f 84 92 00 00 00    	je     101f61 <_namei+0x161>
      // Stop one level early.
      iunlock(ip);
      return ip;
    }
    if((next = dirlookup(ip, name, 0)) == 0){
  101ecf:	c7 44 24 08 00 00 00 	movl   $0x0,0x8(%esp)
  101ed6:	00 
  101ed7:	8b 55 e4             	mov    -0x1c(%ebp),%edx
  101eda:	89 54 24 04          	mov    %edx,0x4(%esp)
  101ede:	8b 45 ec             	mov    -0x14(%ebp),%eax
  101ee1:	89 04 24             	mov    %eax,(%esp)
  101ee4:	e8 a7 f8 ff ff       	call   101790 <dirlookup>
  101ee9:	85 c0                	test   %eax,%eax
  101eeb:	89 c3                	mov    %eax,%ebx
  101eed:	74 3e                	je     101f2d <_namei+0x12d>
      iunlockput(ip);
      return 0;
    }
    iunlockput(ip);
  101eef:	8b 45 ec             	mov    -0x14(%ebp),%eax
  101ef2:	89 04 24             	mov    %eax,(%esp)
  101ef5:	e8 e6 fd ff ff       	call   101ce0 <iunlockput>
  101efa:	89 5d ec             	mov    %ebx,-0x14(%ebp)
  101efd:	89 fb                	mov    %edi,%ebx
  101eff:	e9 2f ff ff ff       	jmp    101e33 <_namei+0x33>
  101f04:	8d 74 26 00          	lea    0x0(%esi,%eiz,1),%esi
    path++;
  len = path - s;
  if(len >= DIRSIZ)
    memmove(name, s, DIRSIZ);
  else {
    memmove(name, s, len);
  101f08:	8b 55 f0             	mov    -0x10(%ebp),%edx
  101f0b:	89 5c 24 04          	mov    %ebx,0x4(%esp)
  101f0f:	89 54 24 08          	mov    %edx,0x8(%esp)
  101f13:	8b 45 e4             	mov    -0x1c(%ebp),%eax
  101f16:	89 04 24             	mov    %eax,(%esp)
  101f19:	e8 22 23 00 00       	call   104240 <memmove>
    name[len] = 0;
  101f1e:	8b 45 e4             	mov    -0x1c(%ebp),%eax
  101f21:	8b 55 f0             	mov    -0x10(%ebp),%edx
  101f24:	c6 04 10 00          	movb   $0x0,(%eax,%edx,1)
  101f28:	e9 62 ff ff ff       	jmp    101e8f <_namei+0x8f>
      // Stop one level early.
      iunlock(ip);
      return ip;
    }
    if((next = dirlookup(ip, name, 0)) == 0){
      iunlockput(ip);
  101f2d:	8b 55 ec             	mov    -0x14(%ebp),%edx
  101f30:	89 14 24             	mov    %edx,(%esp)
  101f33:	e8 a8 fd ff ff       	call   101ce0 <iunlockput>
  101f38:	c7 45 ec 00 00 00 00 	movl   $0x0,-0x14(%ebp)
  if(parent){
    iput(ip);
    return 0;
  }
  return ip;
}
  101f3f:	8b 45 ec             	mov    -0x14(%ebp),%eax
  101f42:	83 c4 1c             	add    $0x1c,%esp
  101f45:	5b                   	pop    %ebx
  101f46:	5e                   	pop    %esi
  101f47:	5f                   	pop    %edi
  101f48:	5d                   	pop    %ebp
  101f49:	c3                   	ret    
_namei(char *path, int parent, char *name)
{
  struct inode *ip, *next;

  if(*path == '/')
    ip = iget(ROOTDEV, 1);
  101f4a:	ba 01 00 00 00       	mov    $0x1,%edx
  101f4f:	b8 01 00 00 00       	mov    $0x1,%eax
  101f54:	e8 37 f2 ff ff       	call   101190 <iget>
  101f59:	89 45 ec             	mov    %eax,-0x14(%ebp)
  101f5c:	e9 d2 fe ff ff       	jmp    101e33 <_namei+0x33>
      iunlockput(ip);
      return 0;
    }
    if(parent && *path == '\0'){
      // Stop one level early.
      iunlock(ip);
  101f61:	8b 45 ec             	mov    -0x14(%ebp),%eax
  101f64:	89 04 24             	mov    %eax,(%esp)
  101f67:	e8 14 fd ff ff       	call   101c80 <iunlock>
  if(parent){
    iput(ip);
    return 0;
  }
  return ip;
}
  101f6c:	8b 45 ec             	mov    -0x14(%ebp),%eax
  101f6f:	83 c4 1c             	add    $0x1c,%esp
  101f72:	5b                   	pop    %ebx
  101f73:	5e                   	pop    %esi
  101f74:	5f                   	pop    %edi
  101f75:	5d                   	pop    %ebp
  101f76:	c3                   	ret    
    }
    iunlockput(ip);
    ip = next;
  }
  if(parent){
    iput(ip);
  101f77:	8b 55 ec             	mov    -0x14(%ebp),%edx
  101f7a:	89 14 24             	mov    %edx,(%esp)
  101f7d:	e8 ae fa ff ff       	call   101a30 <iput>
  101f82:	c7 45 ec 00 00 00 00 	movl   $0x0,-0x14(%ebp)
  101f89:	e9 bd fe ff ff       	jmp    101e4b <_namei+0x4b>
  101f8e:	66 90                	xchg   %ax,%ax

00101f90 <nameiparent>:
  return _namei(path, 0, name);
}

struct inode*
nameiparent(char *path, char *name)
{
  101f90:	55                   	push   %ebp
  return _namei(path, 1, name);
  101f91:	ba 01 00 00 00       	mov    $0x1,%edx
  return _namei(path, 0, name);
}

struct inode*
nameiparent(char *path, char *name)
{
  101f96:	89 e5                	mov    %esp,%ebp
  101f98:	8b 45 08             	mov    0x8(%ebp),%eax
  101f9b:	8b 4d 0c             	mov    0xc(%ebp),%ecx
  return _namei(path, 1, name);
}
  101f9e:	5d                   	pop    %ebp
}

struct inode*
nameiparent(char *path, char *name)
{
  return _namei(path, 1, name);
  101f9f:	e9 5c fe ff ff       	jmp    101e00 <_namei>
  101fa4:	8d b6 00 00 00 00    	lea    0x0(%esi),%esi
  101faa:	8d bf 00 00 00 00    	lea    0x0(%edi),%edi

00101fb0 <namei>:
  return ip;
}

struct inode*
namei(char *path)
{
  101fb0:	55                   	push   %ebp
  char name[DIRSIZ];
  return _namei(path, 0, name);
  101fb1:	31 d2                	xor    %edx,%edx
  return ip;
}

struct inode*
namei(char *path)
{
  101fb3:	89 e5                	mov    %esp,%ebp
  101fb5:	83 ec 18             	sub    $0x18,%esp
  char name[DIRSIZ];
  return _namei(path, 0, name);
  101fb8:	8b 45 08             	mov    0x8(%ebp),%eax
  101fbb:	8d 4d f2             	lea    -0xe(%ebp),%ecx
  101fbe:	e8 3d fe ff ff       	call   101e00 <_namei>
}
  101fc3:	c9                   	leave  
  101fc4:	c3                   	ret    
  101fc5:	8d 74 26 00          	lea    0x0(%esi,%eiz,1),%esi
  101fc9:	8d bc 27 00 00 00 00 	lea    0x0(%edi,%eiz,1),%edi

00101fd0 <iinit>:
  struct inode inode[NINODE];
} icache;

void
iinit(void)
{
  101fd0:	55                   	push   %ebp
  101fd1:	89 e5                	mov    %esp,%ebp
  101fd3:	83 ec 08             	sub    $0x8,%esp
  initlock(&icache.lock, "icache.lock");
  101fd6:	c7 44 24 04 e6 62 10 	movl   $0x1062e6,0x4(%esp)
  101fdd:	00 
  101fde:	c7 04 24 80 a3 10 00 	movl   $0x10a380,(%esp)
  101fe5:	e8 86 1f 00 00       	call   103f70 <initlock>
}
  101fea:	c9                   	leave  
  101feb:	c3                   	ret    
  101fec:	90                   	nop    
  101fed:	90                   	nop    
  101fee:	90                   	nop    
  101fef:	90                   	nop    

00101ff0 <ide_start_request>:
}

// Start the request for b.  Caller must hold ide_lock.
static void
ide_start_request(struct buf *b)
{
  101ff0:	55                   	push   %ebp
static inline uchar
inb(ushort port)
{
  uchar data;

  asm volatile("in %1,%0" : "=a" (data) : "d" (port));
  101ff1:	ba f7 01 00 00       	mov    $0x1f7,%edx
  101ff6:	89 e5                	mov    %esp,%ebp
  101ff8:	56                   	push   %esi
  101ff9:	89 c6                	mov    %eax,%esi
  101ffb:	83 ec 04             	sub    $0x4,%esp
  if(b == 0)
  101ffe:	85 c0                	test   %eax,%eax
  102000:	0f 84 89 00 00 00    	je     10208f <ide_start_request+0x9f>
  102006:	66 90                	xchg   %ax,%ax
  102008:	ec                   	in     (%dx),%al
static int
ide_wait_ready(int check_error)
{
  int r;

  while(((r = inb(0x1f7)) & IDE_BSY) || !(r & IDE_DRDY))
  102009:	0f b6 c0             	movzbl %al,%eax
  10200c:	84 c0                	test   %al,%al
  10200e:	78 f8                	js     102008 <ide_start_request+0x18>
  102010:	a8 40                	test   $0x40,%al
  102012:	74 f4                	je     102008 <ide_start_request+0x18>
}

static inline void
outb(ushort port, uchar data)
{
  asm volatile("out %0,%1" : : "a" (data), "d" (port));
  102014:	ba f6 03 00 00       	mov    $0x3f6,%edx
  102019:	31 c0                	xor    %eax,%eax
  10201b:	ee                   	out    %al,(%dx)
    panic("ide_start_request");

  ide_wait_ready(0);
  outb(0x3f6, 0);  // generate interrupt
  outb(0x1f2, 1);  // number of sectors
  outb(0x1f3, b->sector & 0xff);
  10201c:	ba f2 01 00 00       	mov    $0x1f2,%edx
  102021:	b8 01 00 00 00       	mov    $0x1,%eax
  102026:	ee                   	out    %al,(%dx)
  102027:	8b 4e 08             	mov    0x8(%esi),%ecx
  10202a:	b2 f3                	mov    $0xf3,%dl
  10202c:	89 c8                	mov    %ecx,%eax
  10202e:	ee                   	out    %al,(%dx)
  outb(0x1f4, (b->sector >> 8) & 0xff);
  outb(0x1f5, (b->sector >> 16) & 0xff);
  outb(0x1f6, 0xe0 | ((b->dev&1)<<4) | ((b->sector>>24)&0x0f));
  if(b->flags & B_DIRTY){
  10202f:	c1 e9 08             	shr    $0x8,%ecx
  102032:	b2 f4                	mov    $0xf4,%dl
  102034:	89 c8                	mov    %ecx,%eax
  102036:	ee                   	out    %al,(%dx)
  102037:	c1 e9 08             	shr    $0x8,%ecx
  10203a:	b2 f5                	mov    $0xf5,%dl
  10203c:	89 c8                	mov    %ecx,%eax
  10203e:	ee                   	out    %al,(%dx)
  10203f:	8b 46 04             	mov    0x4(%esi),%eax
  102042:	c1 e9 08             	shr    $0x8,%ecx
  102045:	89 ca                	mov    %ecx,%edx
  102047:	83 e2 0f             	and    $0xf,%edx
  10204a:	83 e0 01             	and    $0x1,%eax
  10204d:	c1 e0 04             	shl    $0x4,%eax
  102050:	09 d0                	or     %edx,%eax
  102052:	ba f6 01 00 00       	mov    $0x1f6,%edx
  102057:	83 c8 e0             	or     $0xffffffe0,%eax
  10205a:	ee                   	out    %al,(%dx)
  10205b:	f6 06 04             	testb  $0x4,(%esi)
  10205e:	75 11                	jne    102071 <ide_start_request+0x81>
  102060:	ba f7 01 00 00       	mov    $0x1f7,%edx
  102065:	b8 20 00 00 00       	mov    $0x20,%eax
  10206a:	ee                   	out    %al,(%dx)
    outb(0x1f7, IDE_CMD_WRITE);
    outsl(0x1f0, b->data, 512/4);
  } else {
    outb(0x1f7, IDE_CMD_READ);
  }
}
  10206b:	83 c4 04             	add    $0x4,%esp
  10206e:	5e                   	pop    %esi
  10206f:	5d                   	pop    %ebp
  102070:	c3                   	ret    
  102071:	b2 f7                	mov    $0xf7,%dl
  102073:	b8 30 00 00 00       	mov    $0x30,%eax
  102078:	ee                   	out    %al,(%dx)
}

static inline void
outsl(int port, const void *addr, int cnt)
{
  asm volatile("cld\n\trepne\n\toutsl"    :
  102079:	b9 80 00 00 00       	mov    $0x80,%ecx
  10207e:	83 c6 18             	add    $0x18,%esi
  102081:	ba f0 01 00 00       	mov    $0x1f0,%edx
  102086:	fc                   	cld    
  102087:	f2 6f                	repnz outsl %ds:(%esi),(%dx)
  102089:	83 c4 04             	add    $0x4,%esp
  10208c:	5e                   	pop    %esi
  10208d:	5d                   	pop    %ebp
  10208e:	c3                   	ret    
// Start the request for b.  Caller must hold ide_lock.
static void
ide_start_request(struct buf *b)
{
  if(b == 0)
    panic("ide_start_request");
  10208f:	c7 04 24 f2 62 10 00 	movl   $0x1062f2,(%esp)
  102096:	e8 d5 e8 ff ff       	call   100970 <panic>
  10209b:	90                   	nop    
  10209c:	8d 74 26 00          	lea    0x0(%esi,%eiz,1),%esi

001020a0 <ide_rw>:
// Sync buf with disk. 
// If B_DIRTY is set, write buf to disk, clear B_DIRTY, set B_VALID.
// Else if B_VALID is not set, read buf from disk, set B_VALID.
void
ide_rw(struct buf *b)
{
  1020a0:	55                   	push   %ebp
  1020a1:	89 e5                	mov    %esp,%ebp
  1020a3:	53                   	push   %ebx
  1020a4:	83 ec 14             	sub    $0x14,%esp
  1020a7:	8b 5d 08             	mov    0x8(%ebp),%ebx
  struct buf **pp;

  if(!(b->flags & B_BUSY))
  1020aa:	8b 03                	mov    (%ebx),%eax
  1020ac:	a8 01                	test   $0x1,%al
  1020ae:	0f 84 90 00 00 00    	je     102144 <ide_rw+0xa4>
    panic("ide_rw: buf not busy");
  if((b->flags & (B_VALID|B_DIRTY)) == B_VALID)
  1020b4:	83 e0 06             	and    $0x6,%eax
  1020b7:	83 f8 02             	cmp    $0x2,%eax
  1020ba:	0f 84 90 00 00 00    	je     102150 <ide_rw+0xb0>
    panic("ide_rw: nothing to do");
  if(b->dev != 0 && !disk_1_present)
  1020c0:	8b 53 04             	mov    0x4(%ebx),%edx
  1020c3:	85 d2                	test   %edx,%edx
  1020c5:	74 0d                	je     1020d4 <ide_rw+0x34>
  1020c7:	a1 38 81 10 00       	mov    0x108138,%eax
  1020cc:	85 c0                	test   %eax,%eax
  1020ce:	0f 84 88 00 00 00    	je     10215c <ide_rw+0xbc>
    panic("ide disk 1 not present");

  acquire(&ide_lock);
  1020d4:	c7 04 24 00 81 10 00 	movl   $0x108100,(%esp)
  1020db:	e8 60 20 00 00       	call   104140 <acquire>

  // Append b to ide_queue.
  b->qnext = 0;
  1020e0:	a1 34 81 10 00       	mov    0x108134,%eax
  for(pp=&ide_queue; *pp; pp=&(*pp)->qnext)
  1020e5:	ba 34 81 10 00       	mov    $0x108134,%edx
    panic("ide disk 1 not present");

  acquire(&ide_lock);

  // Append b to ide_queue.
  b->qnext = 0;
  1020ea:	c7 43 14 00 00 00 00 	movl   $0x0,0x14(%ebx)
  for(pp=&ide_queue; *pp; pp=&(*pp)->qnext)
  1020f1:	85 c0                	test   %eax,%eax
  1020f3:	74 0d                	je     102102 <ide_rw+0x62>
  1020f5:	8d 76 00             	lea    0x0(%esi),%esi
  1020f8:	8d 50 14             	lea    0x14(%eax),%edx
  1020fb:	8b 40 14             	mov    0x14(%eax),%eax
  1020fe:	85 c0                	test   %eax,%eax
  102100:	75 f6                	jne    1020f8 <ide_rw+0x58>
    ;
  *pp = b;
  102102:	89 1a                	mov    %ebx,(%edx)
  
  // Start disk if necessary.
  if(ide_queue == b)
  102104:	39 1d 34 81 10 00    	cmp    %ebx,0x108134
  10210a:	75 14                	jne    102120 <ide_rw+0x80>
  10210c:	eb 2d                	jmp    10213b <ide_rw+0x9b>
  10210e:	66 90                	xchg   %ax,%ax
    ide_start_request(b);
  
  // Wait for request to finish.
  // Assuming will not sleep too long: ignore cp->killed.
  while((b->flags & (B_VALID|B_DIRTY)) != B_VALID)
    sleep(b, &ide_lock);
  102110:	c7 44 24 04 00 81 10 	movl   $0x108100,0x4(%esp)
  102117:	00 
  102118:	89 1c 24             	mov    %ebx,(%esp)
  10211b:	e8 00 16 00 00       	call   103720 <sleep>
  if(ide_queue == b)
    ide_start_request(b);
  
  // Wait for request to finish.
  // Assuming will not sleep too long: ignore cp->killed.
  while((b->flags & (B_VALID|B_DIRTY)) != B_VALID)
  102120:	8b 03                	mov    (%ebx),%eax
  102122:	83 e0 06             	and    $0x6,%eax
  102125:	83 f8 02             	cmp    $0x2,%eax
  102128:	75 e6                	jne    102110 <ide_rw+0x70>
    sleep(b, &ide_lock);

  release(&ide_lock);
  10212a:	c7 45 08 00 81 10 00 	movl   $0x108100,0x8(%ebp)
}
  102131:	83 c4 14             	add    $0x14,%esp
  102134:	5b                   	pop    %ebx
  102135:	5d                   	pop    %ebp
  // Wait for request to finish.
  // Assuming will not sleep too long: ignore cp->killed.
  while((b->flags & (B_VALID|B_DIRTY)) != B_VALID)
    sleep(b, &ide_lock);

  release(&ide_lock);
  102136:	e9 c5 1f 00 00       	jmp    104100 <release>
    ;
  *pp = b;
  
  // Start disk if necessary.
  if(ide_queue == b)
    ide_start_request(b);
  10213b:	89 d8                	mov    %ebx,%eax
  10213d:	e8 ae fe ff ff       	call   101ff0 <ide_start_request>
  102142:	eb dc                	jmp    102120 <ide_rw+0x80>
ide_rw(struct buf *b)
{
  struct buf **pp;

  if(!(b->flags & B_BUSY))
    panic("ide_rw: buf not busy");
  102144:	c7 04 24 04 63 10 00 	movl   $0x106304,(%esp)
  10214b:	e8 20 e8 ff ff       	call   100970 <panic>
  if((b->flags & (B_VALID|B_DIRTY)) == B_VALID)
    panic("ide_rw: nothing to do");
  102150:	c7 04 24 19 63 10 00 	movl   $0x106319,(%esp)
  102157:	e8 14 e8 ff ff       	call   100970 <panic>
  if(b->dev != 0 && !disk_1_present)
    panic("ide disk 1 not present");
  10215c:	c7 04 24 2f 63 10 00 	movl   $0x10632f,(%esp)
  102163:	e8 08 e8 ff ff       	call   100970 <panic>
  102168:	90                   	nop    
  102169:	8d b4 26 00 00 00 00 	lea    0x0(%esi,%eiz,1),%esi

00102170 <ide_intr>:
}

// Interrupt handler.
void
ide_intr(void)
{
  102170:	55                   	push   %ebp
  102171:	89 e5                	mov    %esp,%ebp
  102173:	57                   	push   %edi
  102174:	53                   	push   %ebx
  102175:	83 ec 10             	sub    $0x10,%esp
  struct buf *b;

  acquire(&ide_lock);
  102178:	c7 04 24 00 81 10 00 	movl   $0x108100,(%esp)
  10217f:	e8 bc 1f 00 00       	call   104140 <acquire>
  if((b = ide_queue) == 0){
  102184:	8b 1d 34 81 10 00    	mov    0x108134,%ebx
  10218a:	85 db                	test   %ebx,%ebx
  10218c:	74 28                	je     1021b6 <ide_intr+0x46>
    release(&ide_lock);
    return;
  }

  // Read data if needed.
  if(!(b->flags & B_DIRTY) && ide_wait_ready(1) >= 0)
  10218e:	8b 0b                	mov    (%ebx),%ecx
  102190:	f6 c1 04             	test   $0x4,%cl
  102193:	74 3b                	je     1021d0 <ide_intr+0x60>
    insl(0x1f0, b->data, 512/4);
  
  // Wake process waiting for this buf.
  b->flags |= B_VALID;
  b->flags &= ~B_DIRTY;
  102195:	83 c9 02             	or     $0x2,%ecx
  102198:	83 e1 fb             	and    $0xfffffffb,%ecx
  10219b:	89 0b                	mov    %ecx,(%ebx)
  wakeup(b);
  10219d:	89 1c 24             	mov    %ebx,(%esp)
  1021a0:	e8 9b 12 00 00       	call   103440 <wakeup>
  
  // Start disk on next buf in queue.
  if((ide_queue = b->qnext) != 0)
  1021a5:	8b 43 14             	mov    0x14(%ebx),%eax
  1021a8:	85 c0                	test   %eax,%eax
  1021aa:	a3 34 81 10 00       	mov    %eax,0x108134
  1021af:	74 05                	je     1021b6 <ide_intr+0x46>
    ide_start_request(ide_queue);
  1021b1:	e8 3a fe ff ff       	call   101ff0 <ide_start_request>

  release(&ide_lock);
  1021b6:	c7 04 24 00 81 10 00 	movl   $0x108100,(%esp)
  1021bd:	e8 3e 1f 00 00       	call   104100 <release>
}
  1021c2:	83 c4 10             	add    $0x10,%esp
  1021c5:	5b                   	pop    %ebx
  1021c6:	5f                   	pop    %edi
  1021c7:	5d                   	pop    %ebp
  1021c8:	c3                   	ret    
  1021c9:	8d b4 26 00 00 00 00 	lea    0x0(%esi,%eiz,1),%esi
static inline uchar
inb(ushort port)
{
  uchar data;

  asm volatile("in %1,%0" : "=a" (data) : "d" (port));
  1021d0:	ba f7 01 00 00       	mov    $0x1f7,%edx
  1021d5:	8d 76 00             	lea    0x0(%esi),%esi
  1021d8:	ec                   	in     (%dx),%al
static int
ide_wait_ready(int check_error)
{
  int r;

  while(((r = inb(0x1f7)) & IDE_BSY) || !(r & IDE_DRDY))
  1021d9:	0f b6 c0             	movzbl %al,%eax
  1021dc:	84 c0                	test   %al,%al
  1021de:	78 f8                	js     1021d8 <ide_intr+0x68>
  1021e0:	a8 40                	test   $0x40,%al
  1021e2:	74 f4                	je     1021d8 <ide_intr+0x68>
    ;
  if(check_error && (r & (IDE_DF|IDE_ERR)) != 0)
  1021e4:	a8 21                	test   $0x21,%al
  1021e6:	75 ad                	jne    102195 <ide_intr+0x25>
}

static inline void
insl(int port, void *addr, int cnt)
{
  asm volatile("cld\n\trepne\n\tinsl"     :
  1021e8:	8d 7b 18             	lea    0x18(%ebx),%edi
  1021eb:	b9 80 00 00 00       	mov    $0x80,%ecx
  1021f0:	ba f0 01 00 00       	mov    $0x1f0,%edx
  1021f5:	fc                   	cld    
  1021f6:	f2 6d                	repnz insl (%dx),%es:(%edi)
  1021f8:	8b 0b                	mov    (%ebx),%ecx
  1021fa:	eb 99                	jmp    102195 <ide_intr+0x25>
  1021fc:	8d 74 26 00          	lea    0x0(%esi,%eiz,1),%esi

00102200 <ide_init>:
  return 0;
}

void
ide_init(void)
{
  102200:	55                   	push   %ebp
  102201:	89 e5                	mov    %esp,%ebp
  102203:	53                   	push   %ebx
  102204:	83 ec 14             	sub    $0x14,%esp
  int i;

  initlock(&ide_lock, "ide");
  102207:	c7 44 24 04 46 63 10 	movl   $0x106346,0x4(%esp)
  10220e:	00 
  10220f:	c7 04 24 00 81 10 00 	movl   $0x108100,(%esp)
  102216:	e8 55 1d 00 00       	call   103f70 <initlock>
  pic_enable(IRQ_IDE);
  10221b:	c7 04 24 0e 00 00 00 	movl   $0xe,(%esp)
  102222:	e8 a9 0b 00 00       	call   102dd0 <pic_enable>
  ioapic_enable(IRQ_IDE, ncpu - 1);
  102227:	a1 20 ba 10 00       	mov    0x10ba20,%eax
  10222c:	c7 04 24 0e 00 00 00 	movl   $0xe,(%esp)
  102233:	83 e8 01             	sub    $0x1,%eax
  102236:	89 44 24 04          	mov    %eax,0x4(%esp)
  10223a:	e8 61 00 00 00       	call   1022a0 <ioapic_enable>
static inline uchar
inb(ushort port)
{
  uchar data;

  asm volatile("in %1,%0" : "=a" (data) : "d" (port));
  10223f:	ba f7 01 00 00       	mov    $0x1f7,%edx
  102244:	8d 74 26 00          	lea    0x0(%esi,%eiz,1),%esi
  102248:	ec                   	in     (%dx),%al
static int
ide_wait_ready(int check_error)
{
  int r;

  while(((r = inb(0x1f7)) & IDE_BSY) || !(r & IDE_DRDY))
  102249:	0f b6 c0             	movzbl %al,%eax
  10224c:	84 c0                	test   %al,%al
  10224e:	78 f8                	js     102248 <ide_init+0x48>
  102250:	a8 40                	test   $0x40,%al
  102252:	74 f4                	je     102248 <ide_init+0x48>
}

static inline void
outb(ushort port, uchar data)
{
  asm volatile("out %0,%1" : : "a" (data), "d" (port));
  102254:	ba f6 01 00 00       	mov    $0x1f6,%edx
  102259:	b8 f0 ff ff ff       	mov    $0xfffffff0,%eax
  10225e:	ee                   	out    %al,(%dx)
  10225f:	31 db                	xor    %ebx,%ebx
static inline uchar
inb(ushort port)
{
  uchar data;

  asm volatile("in %1,%0" : "=a" (data) : "d" (port));
  102261:	b9 f7 01 00 00       	mov    $0x1f7,%ecx
  102266:	eb 0b                	jmp    102273 <ide_init+0x73>
  ioapic_enable(IRQ_IDE, ncpu - 1);
  ide_wait_ready(0);
  
  // Check if disk 1 is present
  outb(0x1f6, 0xe0 | (1<<4));
  for(i=0; i<1000; i++){
  102268:	83 c3 01             	add    $0x1,%ebx
  10226b:	81 fb e8 03 00 00    	cmp    $0x3e8,%ebx
  102271:	74 11                	je     102284 <ide_init+0x84>
  102273:	89 ca                	mov    %ecx,%edx
  102275:	ec                   	in     (%dx),%al
    if(inb(0x1f7) != 0){
  102276:	84 c0                	test   %al,%al
  102278:	74 ee                	je     102268 <ide_init+0x68>
      disk_1_present = 1;
  10227a:	c7 05 38 81 10 00 01 	movl   $0x1,0x108138
  102281:	00 00 00 
}

static inline void
outb(ushort port, uchar data)
{
  asm volatile("out %0,%1" : : "a" (data), "d" (port));
  102284:	ba f6 01 00 00       	mov    $0x1f6,%edx
  102289:	b8 e0 ff ff ff       	mov    $0xffffffe0,%eax
  10228e:	ee                   	out    %al,(%dx)
    }
  }
  
  // Switch back to disk 0.
  outb(0x1f6, 0xe0 | (0<<4));
}
  10228f:	83 c4 14             	add    $0x14,%esp
  102292:	5b                   	pop    %ebx
  102293:	5d                   	pop    %ebp
  102294:	c3                   	ret    
  102295:	90                   	nop    
  102296:	90                   	nop    
  102297:	90                   	nop    
  102298:	90                   	nop    
  102299:	90                   	nop    
  10229a:	90                   	nop    
  10229b:	90                   	nop    
  10229c:	90                   	nop    
  10229d:	90                   	nop    
  10229e:	90                   	nop    
  10229f:	90                   	nop    

001022a0 <ioapic_enable>:
}

void
ioapic_enable(int irq, int cpunum)
{
  if(!ismp)
  1022a0:	a1 a0 b3 10 00       	mov    0x10b3a0,%eax
  }
}

void
ioapic_enable(int irq, int cpunum)
{
  1022a5:	55                   	push   %ebp
  1022a6:	89 e5                	mov    %esp,%ebp
  1022a8:	8b 55 08             	mov    0x8(%ebp),%edx
  if(!ismp)
  1022ab:	85 c0                	test   %eax,%eax
  }
}

void
ioapic_enable(int irq, int cpunum)
{
  1022ad:	53                   	push   %ebx
  1022ae:	8b 5d 0c             	mov    0xc(%ebp),%ebx
  if(!ismp)
  1022b1:	74 1d                	je     1022d0 <ioapic_enable+0x30>
}

static void
ioapic_write(int reg, uint data)
{
  ioapic->reg = reg;
  1022b3:	8b 0d 54 b3 10 00    	mov    0x10b354,%ecx
    return;

  // Mark interrupt edge-triggered, active high,
  // enabled, and routed to the given cpunum,
  // which happens to be that cpu's APIC ID.
  ioapic_write(REG_TABLE+2*irq, IRQ_OFFSET + irq);
  1022b9:	8d 42 20             	lea    0x20(%edx),%eax
  1022bc:	8d 54 12 10          	lea    0x10(%edx,%edx,1),%edx
  ioapic_write(REG_TABLE+2*irq+1, cpunum << 24);
  1022c0:	c1 e3 18             	shl    $0x18,%ebx
}

static void
ioapic_write(int reg, uint data)
{
  ioapic->reg = reg;
  1022c3:	89 11                	mov    %edx,(%ecx)
  ioapic->data = data;
  1022c5:	83 c2 01             	add    $0x1,%edx
  1022c8:	89 41 10             	mov    %eax,0x10(%ecx)
}

static void
ioapic_write(int reg, uint data)
{
  ioapic->reg = reg;
  1022cb:	89 11                	mov    %edx,(%ecx)
  ioapic->data = data;
  1022cd:	89 59 10             	mov    %ebx,0x10(%ecx)
  // Mark interrupt edge-triggered, active high,
  // enabled, and routed to the given cpunum,
  // which happens to be that cpu's APIC ID.
  ioapic_write(REG_TABLE+2*irq, IRQ_OFFSET + irq);
  ioapic_write(REG_TABLE+2*irq+1, cpunum << 24);
}
  1022d0:	5b                   	pop    %ebx
  1022d1:	5d                   	pop    %ebp
  1022d2:	c3                   	ret    
  1022d3:	8d b6 00 00 00 00    	lea    0x0(%esi),%esi
  1022d9:	8d bc 27 00 00 00 00 	lea    0x0(%edi,%eiz,1),%edi

001022e0 <ioapic_init>:
  ioapic->data = data;
}

void
ioapic_init(void)
{
  1022e0:	55                   	push   %ebp
  1022e1:	89 e5                	mov    %esp,%ebp
  1022e3:	56                   	push   %esi
  1022e4:	53                   	push   %ebx
  1022e5:	83 ec 10             	sub    $0x10,%esp
  int i, id, maxintr;

  if(!ismp)
  1022e8:	8b 15 a0 b3 10 00    	mov    0x10b3a0,%edx
  1022ee:	85 d2                	test   %edx,%edx
  1022f0:	74 71                	je     102363 <ioapic_init+0x83>
};

static uint
ioapic_read(int reg)
{
  ioapic->reg = reg;
  1022f2:	c7 05 00 00 c0 fe 01 	movl   $0x1,0xfec00000
  1022f9:	00 00 00 
  return ioapic->data;
  1022fc:	a1 10 00 c0 fe       	mov    0xfec00010,%eax
};

static uint
ioapic_read(int reg)
{
  ioapic->reg = reg;
  102301:	c7 05 00 00 c0 fe 00 	movl   $0x0,0xfec00000
  102308:	00 00 00 
    return;

  ioapic = (volatile struct ioapic*)IOAPIC;
  maxintr = (ioapic_read(REG_VER) >> 16) & 0xFF;
  id = ioapic_read(REG_ID) >> 24;
  if(id != ioapic_id)
  10230b:	0f b6 15 a4 b3 10 00 	movzbl 0x10b3a4,%edx
  int i, id, maxintr;

  if(!ismp)
    return;

  ioapic = (volatile struct ioapic*)IOAPIC;
  102312:	c7 05 54 b3 10 00 00 	movl   $0xfec00000,0x10b354
  102319:	00 c0 fe 
  maxintr = (ioapic_read(REG_VER) >> 16) & 0xFF;
  10231c:	c1 e8 10             	shr    $0x10,%eax
  10231f:	0f b6 f0             	movzbl %al,%esi

static uint
ioapic_read(int reg)
{
  ioapic->reg = reg;
  return ioapic->data;
  102322:	a1 10 00 c0 fe       	mov    0xfec00010,%eax
    return;

  ioapic = (volatile struct ioapic*)IOAPIC;
  maxintr = (ioapic_read(REG_VER) >> 16) & 0xFF;
  id = ioapic_read(REG_ID) >> 24;
  if(id != ioapic_id)
  102327:	c1 e8 18             	shr    $0x18,%eax
  10232a:	39 c2                	cmp    %eax,%edx
  10232c:	75 42                	jne    102370 <ioapic_init+0x90>
}

static void
ioapic_write(int reg, uint data)
{
  ioapic->reg = reg;
  10232e:	8b 0d 54 b3 10 00    	mov    0x10b354,%ecx
  102334:	31 db                	xor    %ebx,%ebx
  102336:	ba 10 00 00 00       	mov    $0x10,%edx
  10233b:	90                   	nop    
  10233c:	8d 74 26 00          	lea    0x0(%esi,%eiz,1),%esi
    cprintf("ioapic_init: id isn't equal to ioapic_id; not a MP\n");

  // Mark all interrupts edge-triggered, active high, disabled,
  // and not routed to any CPUs.
  for(i = 0; i <= maxintr; i++){
    ioapic_write(REG_TABLE+2*i, INT_DISABLED | (IRQ_OFFSET + i));
  102340:	8d 43 20             	lea    0x20(%ebx),%eax
  if(id != ioapic_id)
    cprintf("ioapic_init: id isn't equal to ioapic_id; not a MP\n");

  // Mark all interrupts edge-triggered, active high, disabled,
  // and not routed to any CPUs.
  for(i = 0; i <= maxintr; i++){
  102343:	83 c3 01             	add    $0x1,%ebx
    ioapic_write(REG_TABLE+2*i, INT_DISABLED | (IRQ_OFFSET + i));
  102346:	0d 00 00 01 00       	or     $0x10000,%eax
}

static void
ioapic_write(int reg, uint data)
{
  ioapic->reg = reg;
  10234b:	89 11                	mov    %edx,(%ecx)
  ioapic->data = data;
  10234d:	89 41 10             	mov    %eax,0x10(%ecx)
  102350:	8d 42 01             	lea    0x1(%edx),%eax
  if(id != ioapic_id)
    cprintf("ioapic_init: id isn't equal to ioapic_id; not a MP\n");

  // Mark all interrupts edge-triggered, active high, disabled,
  // and not routed to any CPUs.
  for(i = 0; i <= maxintr; i++){
  102353:	83 c2 02             	add    $0x2,%edx
  102356:	39 de                	cmp    %ebx,%esi
}

static void
ioapic_write(int reg, uint data)
{
  ioapic->reg = reg;
  102358:	89 01                	mov    %eax,(%ecx)
  ioapic->data = data;
  10235a:	c7 41 10 00 00 00 00 	movl   $0x0,0x10(%ecx)
  if(id != ioapic_id)
    cprintf("ioapic_init: id isn't equal to ioapic_id; not a MP\n");

  // Mark all interrupts edge-triggered, active high, disabled,
  // and not routed to any CPUs.
  for(i = 0; i <= maxintr; i++){
  102361:	7d dd                	jge    102340 <ioapic_init+0x60>
    ioapic_write(REG_TABLE+2*i, INT_DISABLED | (IRQ_OFFSET + i));
    ioapic_write(REG_TABLE+2*i+1, 0);
  }
}
  102363:	83 c4 10             	add    $0x10,%esp
  102366:	5b                   	pop    %ebx
  102367:	5e                   	pop    %esi
  102368:	5d                   	pop    %ebp
  102369:	c3                   	ret    
  10236a:	8d b6 00 00 00 00    	lea    0x0(%esi),%esi

  ioapic = (volatile struct ioapic*)IOAPIC;
  maxintr = (ioapic_read(REG_VER) >> 16) & 0xFF;
  id = ioapic_read(REG_ID) >> 24;
  if(id != ioapic_id)
    cprintf("ioapic_init: id isn't equal to ioapic_id; not a MP\n");
  102370:	c7 04 24 4c 63 10 00 	movl   $0x10634c,(%esp)
  102377:	e8 24 e4 ff ff       	call   1007a0 <cprintf>
  10237c:	eb b0                	jmp    10232e <ioapic_init+0x4e>
  10237e:	90                   	nop    
  10237f:	90                   	nop    

00102380 <kalloc>:
// Allocate n bytes of physical memory.
// Returns a kernel-segment pointer.
// Returns 0 if the memory cannot be allocated.
char*
kalloc(int n)
{
  102380:	55                   	push   %ebp
  102381:	89 e5                	mov    %esp,%ebp
  102383:	56                   	push   %esi
  102384:	53                   	push   %ebx
  102385:	83 ec 10             	sub    $0x10,%esp
  102388:	8b 75 08             	mov    0x8(%ebp),%esi
  char *p;
  struct run *r, **rp;

  if(n % PAGE || n <= 0)
  10238b:	f7 c6 ff 0f 00 00    	test   $0xfff,%esi
  102391:	74 0d                	je     1023a0 <kalloc+0x20>
    panic("kalloc");
  102393:	c7 04 24 80 63 10 00 	movl   $0x106380,(%esp)
  10239a:	e8 d1 e5 ff ff       	call   100970 <panic>
  10239f:	90                   	nop    
kalloc(int n)
{
  char *p;
  struct run *r, **rp;

  if(n % PAGE || n <= 0)
  1023a0:	85 f6                	test   %esi,%esi
  1023a2:	7e ef                	jle    102393 <kalloc+0x13>
    panic("kalloc");

  acquire(&kalloc_lock);
  1023a4:	c7 04 24 60 b3 10 00 	movl   $0x10b360,(%esp)
  1023ab:	e8 90 1d 00 00       	call   104140 <acquire>
  1023b0:	8b 1d 94 b3 10 00    	mov    0x10b394,%ebx
  for(rp=&freelist; (r=*rp) != 0; rp=&r->next){
  1023b6:	85 db                	test   %ebx,%ebx
  1023b8:	74 3e                	je     1023f8 <kalloc+0x78>
    if(r->len == n){
  1023ba:	8b 43 04             	mov    0x4(%ebx),%eax
  1023bd:	ba 94 b3 10 00       	mov    $0x10b394,%edx
  1023c2:	39 f0                	cmp    %esi,%eax
  1023c4:	75 11                	jne    1023d7 <kalloc+0x57>
  1023c6:	eb 58                	jmp    102420 <kalloc+0xa0>

  if(n % PAGE || n <= 0)
    panic("kalloc");

  acquire(&kalloc_lock);
  for(rp=&freelist; (r=*rp) != 0; rp=&r->next){
  1023c8:	89 da                	mov    %ebx,%edx
  1023ca:	8b 1b                	mov    (%ebx),%ebx
  1023cc:	85 db                	test   %ebx,%ebx
  1023ce:	74 28                	je     1023f8 <kalloc+0x78>
    if(r->len == n){
  1023d0:	8b 43 04             	mov    0x4(%ebx),%eax
  1023d3:	39 f0                	cmp    %esi,%eax
  1023d5:	74 49                	je     102420 <kalloc+0xa0>
      *rp = r->next;
      release(&kalloc_lock);
      return (char*)r;
    }
    if(r->len > n){
  1023d7:	39 c6                	cmp    %eax,%esi
  1023d9:	7d ed                	jge    1023c8 <kalloc+0x48>
      r->len -= n;
  1023db:	29 f0                	sub    %esi,%eax
  1023dd:	89 43 04             	mov    %eax,0x4(%ebx)
      p = (char*)r + r->len;
  1023e0:	01 c3                	add    %eax,%ebx
      release(&kalloc_lock);
  1023e2:	c7 04 24 60 b3 10 00 	movl   $0x10b360,(%esp)
  1023e9:	e8 12 1d 00 00       	call   104100 <release>
  }
  release(&kalloc_lock);

  cprintf("kalloc: out of memory\n");
  return 0;
}
  1023ee:	83 c4 10             	add    $0x10,%esp
  1023f1:	89 d8                	mov    %ebx,%eax
  1023f3:	5b                   	pop    %ebx
  1023f4:	5e                   	pop    %esi
  1023f5:	5d                   	pop    %ebp
  1023f6:	c3                   	ret    
  1023f7:	90                   	nop    
      return p;
    }
  }
  release(&kalloc_lock);

  cprintf("kalloc: out of memory\n");
  1023f8:	31 db                	xor    %ebx,%ebx
      p = (char*)r + r->len;
      release(&kalloc_lock);
      return p;
    }
  }
  release(&kalloc_lock);
  1023fa:	c7 04 24 60 b3 10 00 	movl   $0x10b360,(%esp)
  102401:	e8 fa 1c 00 00       	call   104100 <release>

  cprintf("kalloc: out of memory\n");
  102406:	c7 04 24 87 63 10 00 	movl   $0x106387,(%esp)
  10240d:	e8 8e e3 ff ff       	call   1007a0 <cprintf>
  return 0;
}
  102412:	83 c4 10             	add    $0x10,%esp
  102415:	89 d8                	mov    %ebx,%eax
  102417:	5b                   	pop    %ebx
  102418:	5e                   	pop    %esi
  102419:	5d                   	pop    %ebp
  10241a:	c3                   	ret    
  10241b:	90                   	nop    
  10241c:	8d 74 26 00          	lea    0x0(%esi,%eiz,1),%esi
    panic("kalloc");

  acquire(&kalloc_lock);
  for(rp=&freelist; (r=*rp) != 0; rp=&r->next){
    if(r->len == n){
      *rp = r->next;
  102420:	8b 03                	mov    (%ebx),%eax
  102422:	89 02                	mov    %eax,(%edx)
      release(&kalloc_lock);
  102424:	c7 04 24 60 b3 10 00 	movl   $0x10b360,(%esp)
  10242b:	e8 d0 1c 00 00       	call   104100 <release>
  }
  release(&kalloc_lock);

  cprintf("kalloc: out of memory\n");
  return 0;
}
  102430:	83 c4 10             	add    $0x10,%esp
  102433:	89 d8                	mov    %ebx,%eax
  102435:	5b                   	pop    %ebx
  102436:	5e                   	pop    %esi
  102437:	5d                   	pop    %ebp
  102438:	c3                   	ret    
  102439:	8d b4 26 00 00 00 00 	lea    0x0(%esi,%eiz,1),%esi

00102440 <kfree>:
// which normally should have been returned by a
// call to kalloc(len).  (The exception is when
// initializing the allocator; see kinit above.)
void
kfree(char *v, int len)
{
  102440:	55                   	push   %ebp
  102441:	89 e5                	mov    %esp,%ebp
  102443:	57                   	push   %edi
  102444:	56                   	push   %esi
  102445:	53                   	push   %ebx
  102446:	83 ec 1c             	sub    $0x1c,%esp
  102449:	8b 45 0c             	mov    0xc(%ebp),%eax
  10244c:	8b 5d 08             	mov    0x8(%ebp),%ebx
  struct run *r, *rend, **rp, *p, *pend;

  if(len <= 0 || len % PAGE)
  10244f:	85 c0                	test   %eax,%eax
// which normally should have been returned by a
// call to kalloc(len).  (The exception is when
// initializing the allocator; see kinit above.)
void
kfree(char *v, int len)
{
  102451:	89 45 f0             	mov    %eax,-0x10(%ebp)
  struct run *r, *rend, **rp, *p, *pend;

  if(len <= 0 || len % PAGE)
  102454:	7e 07                	jle    10245d <kfree+0x1d>
  102456:	a9 ff 0f 00 00       	test   $0xfff,%eax
  10245b:	74 13                	je     102470 <kfree+0x30>
    panic("kfree");
  10245d:	c7 04 24 9e 63 10 00 	movl   $0x10639e,(%esp)
  102464:	e8 07 e5 ff ff       	call   100970 <panic>
  102469:	8d b4 26 00 00 00 00 	lea    0x0(%esi,%eiz,1),%esi

  // Fill with junk to catch dangling refs.
  memset(v, 1, len);
  102470:	8b 45 f0             	mov    -0x10(%ebp),%eax

  acquire(&kalloc_lock);
  p = (struct run*)v;
  pend = (struct run*)(v + len);
  for(rp=&freelist; (r=*rp) != 0 && r <= pend; rp=&r->next){
  102473:	bf 94 b3 10 00       	mov    $0x10b394,%edi

  if(len <= 0 || len % PAGE)
    panic("kfree");

  // Fill with junk to catch dangling refs.
  memset(v, 1, len);
  102478:	c7 44 24 04 01 00 00 	movl   $0x1,0x4(%esp)
  10247f:	00 
  102480:	89 1c 24             	mov    %ebx,(%esp)
  102483:	89 44 24 08          	mov    %eax,0x8(%esp)
  102487:	e8 24 1d 00 00       	call   1041b0 <memset>

  acquire(&kalloc_lock);
  10248c:	c7 04 24 60 b3 10 00 	movl   $0x10b360,(%esp)
  102493:	e8 a8 1c 00 00       	call   104140 <acquire>
  p = (struct run*)v;
  102498:	8b 15 94 b3 10 00    	mov    0x10b394,%edx
  pend = (struct run*)(v + len);
  for(rp=&freelist; (r=*rp) != 0 && r <= pend; rp=&r->next){
  10249e:	85 d2                	test   %edx,%edx
  1024a0:	0f 84 82 00 00 00    	je     102528 <kfree+0xe8>
  // Fill with junk to catch dangling refs.
  memset(v, 1, len);

  acquire(&kalloc_lock);
  p = (struct run*)v;
  pend = (struct run*)(v + len);
  1024a6:	8b 45 f0             	mov    -0x10(%ebp),%eax
  for(rp=&freelist; (r=*rp) != 0 && r <= pend; rp=&r->next){
  1024a9:	bf 94 b3 10 00       	mov    $0x10b394,%edi
  // Fill with junk to catch dangling refs.
  memset(v, 1, len);

  acquire(&kalloc_lock);
  p = (struct run*)v;
  pend = (struct run*)(v + len);
  1024ae:	8d 34 03             	lea    (%ebx,%eax,1),%esi
  for(rp=&freelist; (r=*rp) != 0 && r <= pend; rp=&r->next){
  1024b1:	39 d6                	cmp    %edx,%esi
  1024b3:	72 73                	jb     102528 <kfree+0xe8>
    rend = (struct run*)((char*)r + r->len);
  1024b5:	8b 42 04             	mov    0x4(%edx),%eax
    if(r <= p && p < rend)
  1024b8:	39 d3                	cmp    %edx,%ebx

  acquire(&kalloc_lock);
  p = (struct run*)v;
  pend = (struct run*)(v + len);
  for(rp=&freelist; (r=*rp) != 0 && r <= pend; rp=&r->next){
    rend = (struct run*)((char*)r + r->len);
  1024ba:	8d 0c 02             	lea    (%edx,%eax,1),%ecx
    if(r <= p && p < rend)
  1024bd:	73 61                	jae    102520 <kfree+0xe0>
      panic("freeing free page");
    if(pend == r){  // p next to r: replace r with p
  1024bf:	39 d6                	cmp    %edx,%esi
  1024c1:	bf 94 b3 10 00       	mov    $0x10b394,%edi
  1024c6:	74 34                	je     1024fc <kfree+0xbc>
      p->len = len + r->len;
      p->next = r->next;
      *rp = p;
      goto out;
    }
    if(rend == p){  // r next to p: replace p with r
  1024c8:	39 d9                	cmp    %ebx,%ecx
  1024ca:	74 6c                	je     102538 <kfree+0xf8>
  memset(v, 1, len);

  acquire(&kalloc_lock);
  p = (struct run*)v;
  pend = (struct run*)(v + len);
  for(rp=&freelist; (r=*rp) != 0 && r <= pend; rp=&r->next){
  1024cc:	89 d7                	mov    %edx,%edi
  1024ce:	8b 12                	mov    (%edx),%edx
  1024d0:	85 d2                	test   %edx,%edx
  1024d2:	74 54                	je     102528 <kfree+0xe8>
  1024d4:	39 d6                	cmp    %edx,%esi
  1024d6:	72 50                	jb     102528 <kfree+0xe8>
    rend = (struct run*)((char*)r + r->len);
  1024d8:	8b 42 04             	mov    0x4(%edx),%eax
    if(r <= p && p < rend)
  1024db:	39 d3                	cmp    %edx,%ebx

  acquire(&kalloc_lock);
  p = (struct run*)v;
  pend = (struct run*)(v + len);
  for(rp=&freelist; (r=*rp) != 0 && r <= pend; rp=&r->next){
    rend = (struct run*)((char*)r + r->len);
  1024dd:	8d 0c 02             	lea    (%edx,%eax,1),%ecx
    if(r <= p && p < rend)
  1024e0:	72 16                	jb     1024f8 <kfree+0xb8>
  1024e2:	39 cb                	cmp    %ecx,%ebx
  1024e4:	73 12                	jae    1024f8 <kfree+0xb8>
      panic("freeing free page");
  1024e6:	c7 04 24 a4 63 10 00 	movl   $0x1063a4,(%esp)
  1024ed:	e8 7e e4 ff ff       	call   100970 <panic>
  1024f2:	8d b6 00 00 00 00    	lea    0x0(%esi),%esi
    if(pend == r){  // p next to r: replace r with p
  1024f8:	39 d6                	cmp    %edx,%esi
  1024fa:	75 cc                	jne    1024c8 <kfree+0x88>
      p->len = len + r->len;
  1024fc:	03 45 f0             	add    -0x10(%ebp),%eax
  1024ff:	89 43 04             	mov    %eax,0x4(%ebx)
      p->next = r->next;
  102502:	8b 06                	mov    (%esi),%eax
  102504:	89 03                	mov    %eax,(%ebx)
      *rp = p;
  102506:	89 1f                	mov    %ebx,(%edi)
  p->len = len;
  p->next = r;
  *rp = p;

 out:
  release(&kalloc_lock);
  102508:	c7 45 08 60 b3 10 00 	movl   $0x10b360,0x8(%ebp)
}
  10250f:	83 c4 1c             	add    $0x1c,%esp
  102512:	5b                   	pop    %ebx
  102513:	5e                   	pop    %esi
  102514:	5f                   	pop    %edi
  102515:	5d                   	pop    %ebp
  p->len = len;
  p->next = r;
  *rp = p;

 out:
  release(&kalloc_lock);
  102516:	e9 e5 1b 00 00       	jmp    104100 <release>
  10251b:	90                   	nop    
  10251c:	8d 74 26 00          	lea    0x0(%esi,%eiz,1),%esi
  acquire(&kalloc_lock);
  p = (struct run*)v;
  pend = (struct run*)(v + len);
  for(rp=&freelist; (r=*rp) != 0 && r <= pend; rp=&r->next){
    rend = (struct run*)((char*)r + r->len);
    if(r <= p && p < rend)
  102520:	39 cb                	cmp    %ecx,%ebx
  102522:	72 c2                	jb     1024e6 <kfree+0xa6>
  102524:	eb 99                	jmp    1024bf <kfree+0x7f>
  102526:	66 90                	xchg   %ax,%ax
      }
      goto out;
    }
  }
  // Insert p before r in list.
  p->len = len;
  102528:	8b 45 f0             	mov    -0x10(%ebp),%eax
  p->next = r;
  10252b:	89 13                	mov    %edx,(%ebx)
  *rp = p;
  10252d:	89 1f                	mov    %ebx,(%edi)
      }
      goto out;
    }
  }
  // Insert p before r in list.
  p->len = len;
  10252f:	89 43 04             	mov    %eax,0x4(%ebx)
  102532:	eb d4                	jmp    102508 <kfree+0xc8>
  102534:	8d 74 26 00          	lea    0x0(%esi,%eiz,1),%esi
      *rp = p;
      goto out;
    }
    if(rend == p){  // r next to p: replace p with r
      r->len += len;
      if(r->next && r->next == pend){  // r now next to r->next?
  102538:	8b 0a                	mov    (%edx),%ecx
      p->next = r->next;
      *rp = p;
      goto out;
    }
    if(rend == p){  // r next to p: replace p with r
      r->len += len;
  10253a:	03 45 f0             	add    -0x10(%ebp),%eax
      if(r->next && r->next == pend){  // r now next to r->next?
  10253d:	85 c9                	test   %ecx,%ecx
      p->next = r->next;
      *rp = p;
      goto out;
    }
    if(rend == p){  // r next to p: replace p with r
      r->len += len;
  10253f:	89 42 04             	mov    %eax,0x4(%edx)
      if(r->next && r->next == pend){  // r now next to r->next?
  102542:	74 c4                	je     102508 <kfree+0xc8>
  102544:	39 ce                	cmp    %ecx,%esi
  102546:	75 c0                	jne    102508 <kfree+0xc8>
        r->len += r->next->len;
  102548:	03 46 04             	add    0x4(%esi),%eax
  10254b:	89 42 04             	mov    %eax,0x4(%edx)
        r->next = r->next->next;
  10254e:	8b 06                	mov    (%esi),%eax
  102550:	89 02                	mov    %eax,(%edx)
  102552:	eb b4                	jmp    102508 <kfree+0xc8>
  102554:	8d b6 00 00 00 00    	lea    0x0(%esi),%esi
  10255a:	8d bf 00 00 00 00    	lea    0x0(%edi),%edi

00102560 <kinit>:
// This code cheats by just considering one megabyte of
// pages after _end.  Real systems would determine the
// amount of memory available in the system and use it all.
void
kinit(void)
{
  102560:	55                   	push   %ebp
  102561:	89 e5                	mov    %esp,%ebp
  102563:	53                   	push   %ebx
  uint mem;
  char *start;

  initlock(&kalloc_lock, "kalloc");
  start = (char*) &end;
  start = (char*) (((uint)start + PAGE) & ~(PAGE-1));
  102564:	bb c4 fa 10 00       	mov    $0x10fac4,%ebx
// This code cheats by just considering one megabyte of
// pages after _end.  Real systems would determine the
// amount of memory available in the system and use it all.
void
kinit(void)
{
  102569:	83 ec 14             	sub    $0x14,%esp
  uint mem;
  char *start;

  initlock(&kalloc_lock, "kalloc");
  start = (char*) &end;
  start = (char*) (((uint)start + PAGE) & ~(PAGE-1));
  10256c:	81 e3 00 f0 ff ff    	and    $0xfffff000,%ebx
{
  extern int end;
  uint mem;
  char *start;

  initlock(&kalloc_lock, "kalloc");
  102572:	c7 44 24 04 80 63 10 	movl   $0x106380,0x4(%esp)
  102579:	00 
  10257a:	c7 04 24 60 b3 10 00 	movl   $0x10b360,(%esp)
  102581:	e8 ea 19 00 00       	call   103f70 <initlock>
  start = (char*) &end;
  start = (char*) (((uint)start + PAGE) & ~(PAGE-1));
  mem = 256; // assume computer has 256 pages of RAM
  cprintf("mem = %d\n", mem * PAGE);
  102586:	c7 44 24 04 00 00 10 	movl   $0x100000,0x4(%esp)
  10258d:	00 
  10258e:	c7 04 24 b6 63 10 00 	movl   $0x1063b6,(%esp)
  102595:	e8 06 e2 ff ff       	call   1007a0 <cprintf>
  kfree(start, mem * PAGE);
  10259a:	89 1c 24             	mov    %ebx,(%esp)
  10259d:	c7 44 24 04 00 00 10 	movl   $0x100000,0x4(%esp)
  1025a4:	00 
  1025a5:	e8 96 fe ff ff       	call   102440 <kfree>
}
  1025aa:	83 c4 14             	add    $0x14,%esp
  1025ad:	5b                   	pop    %ebx
  1025ae:	5d                   	pop    %ebp
  1025af:	c3                   	ret    

001025b0 <kbd_getc>:
#include "defs.h"
#include "kbd.h"

int
kbd_getc(void)
{
  1025b0:	55                   	push   %ebp
static inline uchar
inb(ushort port)
{
  uchar data;

  asm volatile("in %1,%0" : "=a" (data) : "d" (port));
  1025b1:	ba 64 00 00 00       	mov    $0x64,%edx
  1025b6:	89 e5                	mov    %esp,%ebp
  1025b8:	ec                   	in     (%dx),%al
    normalmap, shiftmap, ctlmap, ctlmap
  };
  uint st, data, c;

  st = inb(KBSTATP);
  if((st & KBS_DIB) == 0)
  1025b9:	a8 01                	test   $0x1,%al
  1025bb:	ba ff ff ff ff       	mov    $0xffffffff,%edx
  1025c0:	74 76                	je     102638 <kbd_getc+0x88>
  1025c2:	ba 60 00 00 00       	mov    $0x60,%edx
  1025c7:	ec                   	in     (%dx),%al
    return -1;
  data = inb(KBDATAP);
  1025c8:	0f b6 c8             	movzbl %al,%ecx

  if(data == 0xE0){
  1025cb:	81 f9 e0 00 00 00    	cmp    $0xe0,%ecx
  1025d1:	0f 84 99 00 00 00    	je     102670 <kbd_getc+0xc0>
    shift |= E0ESC;
    return 0;
  } else if(data & 0x80){
  1025d7:	84 c9                	test   %cl,%cl
  1025d9:	78 65                	js     102640 <kbd_getc+0x90>
    // Key released
    data = (shift & E0ESC ? data : data & 0x7F);
    shift &= ~(shiftcode[data] | E0ESC);
    return 0;
  } else if(shift & E0ESC){
  1025db:	a1 3c 81 10 00       	mov    0x10813c,%eax
  1025e0:	a8 40                	test   $0x40,%al
  1025e2:	74 0b                	je     1025ef <kbd_getc+0x3f>
    // Last character was an E0 escape; or with 0x80
    data |= 0x80;
    shift &= ~E0ESC;
  1025e4:	83 e0 bf             	and    $0xffffffbf,%eax
    data = (shift & E0ESC ? data : data & 0x7F);
    shift &= ~(shiftcode[data] | E0ESC);
    return 0;
  } else if(shift & E0ESC){
    // Last character was an E0 escape; or with 0x80
    data |= 0x80;
  1025e7:	80 c9 80             	or     $0x80,%cl
    shift &= ~E0ESC;
  1025ea:	a3 3c 81 10 00       	mov    %eax,0x10813c
  }

  shift |= shiftcode[data];
  shift ^= togglecode[data];
  1025ef:	0f b6 91 c0 64 10 00 	movzbl 0x1064c0(%ecx),%edx
  1025f6:	0f b6 81 c0 63 10 00 	movzbl 0x1063c0(%ecx),%eax
  1025fd:	0b 05 3c 81 10 00    	or     0x10813c,%eax
  102603:	31 d0                	xor    %edx,%eax
  c = charcode[shift & (CTL | SHIFT)][data];
  102605:	89 c2                	mov    %eax,%edx
  102607:	83 e2 03             	and    $0x3,%edx
  if(shift & CAPSLOCK){
  10260a:	a8 08                	test   $0x8,%al
    shift &= ~E0ESC;
  }

  shift |= shiftcode[data];
  shift ^= togglecode[data];
  c = charcode[shift & (CTL | SHIFT)][data];
  10260c:	8b 14 95 c0 65 10 00 	mov    0x1065c0(,%edx,4),%edx
    data |= 0x80;
    shift &= ~E0ESC;
  }

  shift |= shiftcode[data];
  shift ^= togglecode[data];
  102613:	a3 3c 81 10 00       	mov    %eax,0x10813c
  c = charcode[shift & (CTL | SHIFT)][data];
  102618:	0f b6 14 0a          	movzbl (%edx,%ecx,1),%edx
  if(shift & CAPSLOCK){
  10261c:	74 1a                	je     102638 <kbd_getc+0x88>
    if('a' <= c && c <= 'z')
  10261e:	8d 42 9f             	lea    -0x61(%edx),%eax
  102621:	83 f8 19             	cmp    $0x19,%eax
  102624:	76 5a                	jbe    102680 <kbd_getc+0xd0>
      c += 'A' - 'a';
    else if('A' <= c && c <= 'Z')
  102626:	8d 42 bf             	lea    -0x41(%edx),%eax
  102629:	83 f8 19             	cmp    $0x19,%eax
  10262c:	77 0a                	ja     102638 <kbd_getc+0x88>
      c += 'a' - 'A';
  10262e:	83 c2 20             	add    $0x20,%edx
  102631:	8d b4 26 00 00 00 00 	lea    0x0(%esi,%eiz,1),%esi
  }
  return c;
}
  102638:	89 d0                	mov    %edx,%eax
  10263a:	5d                   	pop    %ebp
  10263b:	c3                   	ret    
  10263c:	8d 74 26 00          	lea    0x0(%esi,%eiz,1),%esi
  if(data == 0xE0){
    shift |= E0ESC;
    return 0;
  } else if(data & 0x80){
    // Key released
    data = (shift & E0ESC ? data : data & 0x7F);
  102640:	8b 15 3c 81 10 00    	mov    0x10813c,%edx
  102646:	f6 c2 40             	test   $0x40,%dl
  102649:	75 03                	jne    10264e <kbd_getc+0x9e>
  10264b:	83 e1 7f             	and    $0x7f,%ecx
    shift &= ~(shiftcode[data] | E0ESC);
  10264e:	0f b6 81 c0 63 10 00 	movzbl 0x1063c0(%ecx),%eax
      c += 'A' - 'a';
    else if('A' <= c && c <= 'Z')
      c += 'a' - 'A';
  }
  return c;
}
  102655:	5d                   	pop    %ebp
    shift |= E0ESC;
    return 0;
  } else if(data & 0x80){
    // Key released
    data = (shift & E0ESC ? data : data & 0x7F);
    shift &= ~(shiftcode[data] | E0ESC);
  102656:	83 c8 40             	or     $0x40,%eax
  102659:	0f b6 c0             	movzbl %al,%eax
  10265c:	f7 d0                	not    %eax
  10265e:	21 d0                	and    %edx,%eax
  102660:	31 d2                	xor    %edx,%edx
  102662:	a3 3c 81 10 00       	mov    %eax,0x10813c
      c += 'A' - 'a';
    else if('A' <= c && c <= 'Z')
      c += 'a' - 'A';
  }
  return c;
}
  102667:	89 d0                	mov    %edx,%eax
  102669:	c3                   	ret    
  10266a:	8d b6 00 00 00 00    	lea    0x0(%esi),%esi
  if((st & KBS_DIB) == 0)
    return -1;
  data = inb(KBDATAP);

  if(data == 0xE0){
    shift |= E0ESC;
  102670:	31 d2                	xor    %edx,%edx
      c += 'A' - 'a';
    else if('A' <= c && c <= 'Z')
      c += 'a' - 'A';
  }
  return c;
}
  102672:	89 d0                	mov    %edx,%eax
  if((st & KBS_DIB) == 0)
    return -1;
  data = inb(KBDATAP);

  if(data == 0xE0){
    shift |= E0ESC;
  102674:	83 0d 3c 81 10 00 40 	orl    $0x40,0x10813c
      c += 'A' - 'a';
    else if('A' <= c && c <= 'Z')
      c += 'a' - 'A';
  }
  return c;
}
  10267b:	5d                   	pop    %ebp
  10267c:	c3                   	ret    
  10267d:	8d 76 00             	lea    0x0(%esi),%esi
  shift |= shiftcode[data];
  shift ^= togglecode[data];
  c = charcode[shift & (CTL | SHIFT)][data];
  if(shift & CAPSLOCK){
    if('a' <= c && c <= 'z')
      c += 'A' - 'a';
  102680:	83 ea 20             	sub    $0x20,%edx
  102683:	eb b3                	jmp    102638 <kbd_getc+0x88>
  102685:	8d 74 26 00          	lea    0x0(%esi,%eiz,1),%esi
  102689:	8d bc 27 00 00 00 00 	lea    0x0(%edi,%eiz,1),%edi

00102690 <kbd_intr>:
  return c;
}

void
kbd_intr(void)
{
  102690:	55                   	push   %ebp
  102691:	89 e5                	mov    %esp,%ebp
  102693:	83 ec 08             	sub    $0x8,%esp
  console_intr(kbd_getc);
  102696:	c7 04 24 b0 25 10 00 	movl   $0x1025b0,(%esp)
  10269d:	e8 8e de ff ff       	call   100530 <console_intr>
}
  1026a2:	c9                   	leave  
  1026a3:	c3                   	ret    
  1026a4:	90                   	nop    
  1026a5:	90                   	nop    
  1026a6:	90                   	nop    
  1026a7:	90                   	nop    
  1026a8:	90                   	nop    
  1026a9:	90                   	nop    
  1026aa:	90                   	nop    
  1026ab:	90                   	nop    
  1026ac:	90                   	nop    
  1026ad:	90                   	nop    
  1026ae:	90                   	nop    
  1026af:	90                   	nop    

001026b0 <lapic_init>:
}

void
lapic_init(int c)
{
  if(!lapic) 
  1026b0:	8b 15 98 b3 10 00    	mov    0x10b398,%edx
  lapic[ID];  // wait for write to finish, by reading
}

void
lapic_init(int c)
{
  1026b6:	55                   	push   %ebp
  1026b7:	89 e5                	mov    %esp,%ebp
  if(!lapic) 
  1026b9:	85 d2                	test   %edx,%edx
  1026bb:	0f 84 c3 00 00 00    	je     102784 <lapic_init+0xd4>
volatile uint *lapic;  // Initialized in mp.c

static void
lapicw(int index, int value)
{
  lapic[index] = value;
  1026c1:	c7 82 f0 00 00 00 3f 	movl   $0x13f,0xf0(%edx)
  1026c8:	01 00 00 
  lapic[ID];  // wait for write to finish, by reading
  1026cb:	8b 42 20             	mov    0x20(%edx),%eax
volatile uint *lapic;  // Initialized in mp.c

static void
lapicw(int index, int value)
{
  lapic[index] = value;
  1026ce:	c7 82 e0 03 00 00 0b 	movl   $0xb,0x3e0(%edx)
  1026d5:	00 00 00 
  lapic[ID];  // wait for write to finish, by reading
  1026d8:	8b 42 20             	mov    0x20(%edx),%eax
volatile uint *lapic;  // Initialized in mp.c

static void
lapicw(int index, int value)
{
  lapic[index] = value;
  1026db:	c7 82 20 03 00 00 20 	movl   $0x20020,0x320(%edx)
  1026e2:	00 02 00 
  lapic[ID];  // wait for write to finish, by reading
  1026e5:	8b 42 20             	mov    0x20(%edx),%eax
volatile uint *lapic;  // Initialized in mp.c

static void
lapicw(int index, int value)
{
  lapic[index] = value;
  1026e8:	c7 82 80 03 00 00 80 	movl   $0x989680,0x380(%edx)
  1026ef:	96 98 00 
  lapic[ID];  // wait for write to finish, by reading
  1026f2:	8b 42 20             	mov    0x20(%edx),%eax
volatile uint *lapic;  // Initialized in mp.c

static void
lapicw(int index, int value)
{
  lapic[index] = value;
  1026f5:	c7 82 50 03 00 00 00 	movl   $0x10000,0x350(%edx)
  1026fc:	00 01 00 
  lapic[ID];  // wait for write to finish, by reading
  1026ff:	8b 42 20             	mov    0x20(%edx),%eax
volatile uint *lapic;  // Initialized in mp.c

static void
lapicw(int index, int value)
{
  lapic[index] = value;
  102702:	c7 82 60 03 00 00 00 	movl   $0x10000,0x360(%edx)
  102709:	00 01 00 
  lapic[ID];  // wait for write to finish, by reading
  10270c:	8b 42 20             	mov    0x20(%edx),%eax
  lapicw(LINT0, MASKED);
  lapicw(LINT1, MASKED);

  // Disable performance counter overflow interrupts
  // on machines that provide that interrupt entry.
  if(((lapic[VER]>>16) & 0xFF) >= 4)
  10270f:	8b 42 30             	mov    0x30(%edx),%eax
  102712:	c1 e8 10             	shr    $0x10,%eax
  102715:	3c 03                	cmp    $0x3,%al
  102717:	77 6f                	ja     102788 <lapic_init+0xd8>
volatile uint *lapic;  // Initialized in mp.c

static void
lapicw(int index, int value)
{
  lapic[index] = value;
  102719:	c7 82 70 03 00 00 33 	movl   $0x33,0x370(%edx)
  102720:	00 00 00 
  lapic[ID];  // wait for write to finish, by reading
  102723:	8b 42 20             	mov    0x20(%edx),%eax
volatile uint *lapic;  // Initialized in mp.c

static void
lapicw(int index, int value)
{
  lapic[index] = value;
  102726:	8d 8a 00 03 00 00    	lea    0x300(%edx),%ecx
  lapic[ID];  // wait for write to finish, by reading
  10272c:	c7 82 80 02 00 00 00 	movl   $0x0,0x280(%edx)
  102733:	00 00 00 
  102736:	8b 42 20             	mov    0x20(%edx),%eax
volatile uint *lapic;  // Initialized in mp.c

static void
lapicw(int index, int value)
{
  lapic[index] = value;
  102739:	c7 82 80 02 00 00 00 	movl   $0x0,0x280(%edx)
  102740:	00 00 00 
  lapic[ID];  // wait for write to finish, by reading
  102743:	8b 42 20             	mov    0x20(%edx),%eax
volatile uint *lapic;  // Initialized in mp.c

static void
lapicw(int index, int value)
{
  lapic[index] = value;
  102746:	c7 82 b0 00 00 00 00 	movl   $0x0,0xb0(%edx)
  10274d:	00 00 00 
  lapic[ID];  // wait for write to finish, by reading
  102750:	8b 42 20             	mov    0x20(%edx),%eax
volatile uint *lapic;  // Initialized in mp.c

static void
lapicw(int index, int value)
{
  lapic[index] = value;
  102753:	c7 82 10 03 00 00 00 	movl   $0x0,0x310(%edx)
  10275a:	00 00 00 
  lapic[ID];  // wait for write to finish, by reading
  10275d:	8b 42 20             	mov    0x20(%edx),%eax
volatile uint *lapic;  // Initialized in mp.c

static void
lapicw(int index, int value)
{
  lapic[index] = value;
  102760:	c7 82 00 03 00 00 00 	movl   $0x88500,0x300(%edx)
  102767:	85 08 00 
  lapic[ID];  // wait for write to finish, by reading
  10276a:	8b 42 20             	mov    0x20(%edx),%eax
  10276d:	8d 76 00             	lea    0x0(%esi),%esi
  lapicw(EOI, 0);

  // Send an Init Level De-Assert to synchronise arbitration ID's.
  lapicw(ICRHI, 0);
  lapicw(ICRLO, BCAST | INIT | LEVEL);
  while(lapic[ICRLO] & DELIVS)
  102770:	8b 01                	mov    (%ecx),%eax
  102772:	f6 c4 10             	test   $0x10,%ah
  102775:	75 f9                	jne    102770 <lapic_init+0xc0>
volatile uint *lapic;  // Initialized in mp.c

static void
lapicw(int index, int value)
{
  lapic[index] = value;
  102777:	c7 82 80 00 00 00 00 	movl   $0x0,0x80(%edx)
  10277e:	00 00 00 
  lapic[ID];  // wait for write to finish, by reading
  102781:	8b 42 20             	mov    0x20(%edx),%eax
  while(lapic[ICRLO] & DELIVS)
    ;

  // Enable interrupts on the APIC (but not on the processor).
  lapicw(TPR, 0);
}
  102784:	5d                   	pop    %ebp
  102785:	c3                   	ret    
  102786:	66 90                	xchg   %ax,%ax
volatile uint *lapic;  // Initialized in mp.c

static void
lapicw(int index, int value)
{
  lapic[index] = value;
  102788:	c7 82 40 03 00 00 00 	movl   $0x10000,0x340(%edx)
  10278f:	00 01 00 
  lapic[ID];  // wait for write to finish, by reading
  102792:	8b 42 20             	mov    0x20(%edx),%eax
  102795:	eb 82                	jmp    102719 <lapic_init+0x69>
  102797:	89 f6                	mov    %esi,%esi
  102799:	8d bc 27 00 00 00 00 	lea    0x0(%edi,%eiz,1),%edi

001027a0 <lapic_eoi>:

// Acknowledge interrupt.
void
lapic_eoi(void)
{
  if(lapic)
  1027a0:	a1 98 b3 10 00       	mov    0x10b398,%eax
}

// Acknowledge interrupt.
void
lapic_eoi(void)
{
  1027a5:	55                   	push   %ebp
  1027a6:	89 e5                	mov    %esp,%ebp
  if(lapic)
  1027a8:	85 c0                	test   %eax,%eax
  1027aa:	74 0d                	je     1027b9 <lapic_eoi+0x19>
volatile uint *lapic;  // Initialized in mp.c

static void
lapicw(int index, int value)
{
  lapic[index] = value;
  1027ac:	c7 80 b0 00 00 00 00 	movl   $0x0,0xb0(%eax)
  1027b3:	00 00 00 
  lapic[ID];  // wait for write to finish, by reading
  1027b6:	8b 40 20             	mov    0x20(%eax),%eax
void
lapic_eoi(void)
{
  if(lapic)
    lapicw(EOI, 0);
}
  1027b9:	5d                   	pop    %ebp
  1027ba:	c3                   	ret    
  1027bb:	90                   	nop    
  1027bc:	8d 74 26 00          	lea    0x0(%esi,%eiz,1),%esi

001027c0 <lapic_startap>:

// Start additional processor running bootstrap code at addr.
// See Appendix B of MultiProcessor Specification.
void
lapic_startap(uchar apicid, uint addr)
{
  1027c0:	55                   	push   %ebp
}

static inline void
outb(ushort port, uchar data)
{
  asm volatile("out %0,%1" : : "a" (data), "d" (port));
  1027c1:	ba 70 00 00 00       	mov    $0x70,%edx
  1027c6:	89 e5                	mov    %esp,%ebp
  1027c8:	b8 0f 00 00 00       	mov    $0xf,%eax
  1027cd:	57                   	push   %edi
  1027ce:	56                   	push   %esi
  1027cf:	53                   	push   %ebx
  1027d0:	83 ec 18             	sub    $0x18,%esp
  1027d3:	0f b6 4d 08          	movzbl 0x8(%ebp),%ecx
  1027d7:	ee                   	out    %al,(%dx)
  // the AP startup code prior to the [universal startup algorithm]."
  outb(IO_RTC, 0xF);  // offset 0xF is shutdown code
  outb(IO_RTC+1, 0x0A);
  wrv = (ushort*)(0x40<<4 | 0x67);  // Warm reset vector
  wrv[0] = 0;
  wrv[1] = addr >> 4;
  1027d8:	b8 0a 00 00 00       	mov    $0xa,%eax
  1027dd:	b2 71                	mov    $0x71,%dl
  1027df:	ee                   	out    %al,(%dx)
  1027e0:	8b 45 0c             	mov    0xc(%ebp),%eax
volatile uint *lapic;  // Initialized in mp.c

static void
lapicw(int index, int value)
{
  lapic[index] = value;
  1027e3:	89 cf                	mov    %ecx,%edi
// Spin for a given number of microseconds.
// On real hardware would want to tune this dynamically.
static void
microdelay(int us)
{
  volatile int j = 0;
  1027e5:	ba c7 00 00 00       	mov    $0xc7,%edx
volatile uint *lapic;  // Initialized in mp.c

static void
lapicw(int index, int value)
{
  lapic[index] = value;
  1027ea:	8b 1d 98 b3 10 00    	mov    0x10b398,%ebx
  1027f0:	c1 e7 18             	shl    $0x18,%edi
  // and the warm reset vector (DWORD based at 40:67) to point at
  // the AP startup code prior to the [universal startup algorithm]."
  outb(IO_RTC, 0xF);  // offset 0xF is shutdown code
  outb(IO_RTC+1, 0x0A);
  wrv = (ushort*)(0x40<<4 | 0x67);  // Warm reset vector
  wrv[0] = 0;
  1027f3:	66 c7 05 67 04 00 00 	movw   $0x0,0x467
  1027fa:	00 00 
  wrv[1] = addr >> 4;
  1027fc:	c1 e8 04             	shr    $0x4,%eax
  1027ff:	66 a3 69 04 00 00    	mov    %ax,0x469
volatile uint *lapic;  // Initialized in mp.c

static void
lapicw(int index, int value)
{
  lapic[index] = value;
  102805:	8d 83 10 03 00 00    	lea    0x310(%ebx),%eax
  10280b:	89 bb 10 03 00 00    	mov    %edi,0x310(%ebx)
  lapic[ID];  // wait for write to finish, by reading
  102811:	8d 73 20             	lea    0x20(%ebx),%esi
volatile uint *lapic;  // Initialized in mp.c

static void
lapicw(int index, int value)
{
  lapic[index] = value;
  102814:	89 45 dc             	mov    %eax,-0x24(%ebp)
  lapic[ID];  // wait for write to finish, by reading
  102817:	8b 43 20             	mov    0x20(%ebx),%eax
volatile uint *lapic;  // Initialized in mp.c

static void
lapicw(int index, int value)
{
  lapic[index] = value;
  10281a:	8d 83 00 03 00 00    	lea    0x300(%ebx),%eax
  102820:	c7 83 00 03 00 00 00 	movl   $0xc500,0x300(%ebx)
  102827:	c5 00 00 
  10282a:	89 45 e0             	mov    %eax,-0x20(%ebp)
  lapic[ID];  // wait for write to finish, by reading
  10282d:	8b 43 20             	mov    0x20(%ebx),%eax
// Spin for a given number of microseconds.
// On real hardware would want to tune this dynamically.
static void
microdelay(int us)
{
  volatile int j = 0;
  102830:	c7 45 f0 00 00 00 00 	movl   $0x0,-0x10(%ebp)
  102837:	eb 0e                	jmp    102847 <lapic_startap+0x87>
  102839:	8d b4 26 00 00 00 00 	lea    0x0(%esi,%eiz,1),%esi
  
  while(us-- > 0)
  102840:	85 d2                	test   %edx,%edx
  102842:	74 2b                	je     10286f <lapic_startap+0xaf>
  102844:	83 ea 01             	sub    $0x1,%edx
    for(j=0; j<10000; j++);
  102847:	c7 45 f0 00 00 00 00 	movl   $0x0,-0x10(%ebp)
  10284e:	8b 45 f0             	mov    -0x10(%ebp),%eax
  102851:	3d 0f 27 00 00       	cmp    $0x270f,%eax
  102856:	7f e8                	jg     102840 <lapic_startap+0x80>
  102858:	8b 45 f0             	mov    -0x10(%ebp),%eax
  10285b:	83 c0 01             	add    $0x1,%eax
  10285e:	89 45 f0             	mov    %eax,-0x10(%ebp)
  102861:	8b 45 f0             	mov    -0x10(%ebp),%eax
  102864:	3d 0f 27 00 00       	cmp    $0x270f,%eax
  102869:	7e ed                	jle    102858 <lapic_startap+0x98>
static void
microdelay(int us)
{
  volatile int j = 0;
  
  while(us-- > 0)
  10286b:	85 d2                	test   %edx,%edx
  10286d:	75 d5                	jne    102844 <lapic_startap+0x84>
volatile uint *lapic;  // Initialized in mp.c

static void
lapicw(int index, int value)
{
  lapic[index] = value;
  10286f:	c7 83 00 03 00 00 00 	movl   $0x8500,0x300(%ebx)
  102876:	85 00 00 
// Spin for a given number of microseconds.
// On real hardware would want to tune this dynamically.
static void
microdelay(int us)
{
  volatile int j = 0;
  102879:	ba 63 00 00 00       	mov    $0x63,%edx

static void
lapicw(int index, int value)
{
  lapic[index] = value;
  lapic[ID];  // wait for write to finish, by reading
  10287e:	8b 43 20             	mov    0x20(%ebx),%eax
// Spin for a given number of microseconds.
// On real hardware would want to tune this dynamically.
static void
microdelay(int us)
{
  volatile int j = 0;
  102881:	c7 45 f0 00 00 00 00 	movl   $0x0,-0x10(%ebp)
  102888:	eb 0d                	jmp    102897 <lapic_startap+0xd7>
  10288a:	8d b6 00 00 00 00    	lea    0x0(%esi),%esi
  
  while(us-- > 0)
  102890:	85 d2                	test   %edx,%edx
  102892:	74 2b                	je     1028bf <lapic_startap+0xff>
  102894:	83 ea 01             	sub    $0x1,%edx
    for(j=0; j<10000; j++);
  102897:	c7 45 f0 00 00 00 00 	movl   $0x0,-0x10(%ebp)
  10289e:	8b 45 f0             	mov    -0x10(%ebp),%eax
  1028a1:	3d 0f 27 00 00       	cmp    $0x270f,%eax
  1028a6:	7f e8                	jg     102890 <lapic_startap+0xd0>
  1028a8:	8b 45 f0             	mov    -0x10(%ebp),%eax
  1028ab:	83 c0 01             	add    $0x1,%eax
  1028ae:	89 45 f0             	mov    %eax,-0x10(%ebp)
  1028b1:	8b 45 f0             	mov    -0x10(%ebp),%eax
  1028b4:	3d 0f 27 00 00       	cmp    $0x270f,%eax
  1028b9:	7e ed                	jle    1028a8 <lapic_startap+0xe8>
static void
microdelay(int us)
{
  volatile int j = 0;
  
  while(us-- > 0)
  1028bb:	85 d2                	test   %edx,%edx
  1028bd:	75 d5                	jne    102894 <lapic_startap+0xd4>
  1028bf:	8b 4d 0c             	mov    0xc(%ebp),%ecx
  1028c2:	31 db                	xor    %ebx,%ebx
  1028c4:	c1 e9 0c             	shr    $0xc,%ecx
  1028c7:	80 cd 06             	or     $0x6,%ch
volatile uint *lapic;  // Initialized in mp.c

static void
lapicw(int index, int value)
{
  lapic[index] = value;
  1028ca:	8b 45 dc             	mov    -0x24(%ebp),%eax
// Spin for a given number of microseconds.
// On real hardware would want to tune this dynamically.
static void
microdelay(int us)
{
  volatile int j = 0;
  1028cd:	ba c7 00 00 00       	mov    $0xc7,%edx
volatile uint *lapic;  // Initialized in mp.c

static void
lapicw(int index, int value)
{
  lapic[index] = value;
  1028d2:	89 38                	mov    %edi,(%eax)
  lapic[ID];  // wait for write to finish, by reading
  1028d4:	8b 06                	mov    (%esi),%eax
volatile uint *lapic;  // Initialized in mp.c

static void
lapicw(int index, int value)
{
  lapic[index] = value;
  1028d6:	8b 45 e0             	mov    -0x20(%ebp),%eax
  1028d9:	89 08                	mov    %ecx,(%eax)
  lapic[ID];  // wait for write to finish, by reading
  1028db:	8b 06                	mov    (%esi),%eax
// Spin for a given number of microseconds.
// On real hardware would want to tune this dynamically.
static void
microdelay(int us)
{
  volatile int j = 0;
  1028dd:	c7 45 f0 00 00 00 00 	movl   $0x0,-0x10(%ebp)
  1028e4:	eb 09                	jmp    1028ef <lapic_startap+0x12f>
  1028e6:	66 90                	xchg   %ax,%ax
  
  while(us-- > 0)
  1028e8:	85 d2                	test   %edx,%edx
  1028ea:	74 2c                	je     102918 <lapic_startap+0x158>
  1028ec:	83 ea 01             	sub    $0x1,%edx
    for(j=0; j<10000; j++);
  1028ef:	c7 45 f0 00 00 00 00 	movl   $0x0,-0x10(%ebp)
  1028f6:	8b 45 f0             	mov    -0x10(%ebp),%eax
  1028f9:	3d 0f 27 00 00       	cmp    $0x270f,%eax
  1028fe:	7f e8                	jg     1028e8 <lapic_startap+0x128>
  102900:	8b 45 f0             	mov    -0x10(%ebp),%eax
  102903:	83 c0 01             	add    $0x1,%eax
  102906:	89 45 f0             	mov    %eax,-0x10(%ebp)
  102909:	8b 45 f0             	mov    -0x10(%ebp),%eax
  10290c:	3d 0f 27 00 00       	cmp    $0x270f,%eax
  102911:	7e ed                	jle    102900 <lapic_startap+0x140>
static void
microdelay(int us)
{
  volatile int j = 0;
  
  while(us-- > 0)
  102913:	85 d2                	test   %edx,%edx
  102915:	75 d5                	jne    1028ec <lapic_startap+0x12c>
  102917:	90                   	nop    
  // Send startup IPI (twice!) to enter bootstrap code.
  // Regular hardware is supposed to only accept a STARTUP
  // when it is in the halted state due to an INIT.  So the second
  // should be ignored, but it is part of the official Intel algorithm.
  // Bochs complains about the second one.  Too bad for Bochs.
  for(i = 0; i < 2; i++){
  102918:	83 c3 01             	add    $0x1,%ebx
  10291b:	83 fb 02             	cmp    $0x2,%ebx
  10291e:	75 aa                	jne    1028ca <lapic_startap+0x10a>
    lapicw(ICRHI, apicid<<24);
    lapicw(ICRLO, STARTUP | (addr>>12));
    microdelay(200);
  }
}
  102920:	83 c4 18             	add    $0x18,%esp
  102923:	5b                   	pop    %ebx
  102924:	5e                   	pop    %esi
  102925:	5f                   	pop    %edi
  102926:	5d                   	pop    %ebp
  102927:	c3                   	ret    
  102928:	90                   	nop    
  102929:	8d b4 26 00 00 00 00 	lea    0x0(%esi,%eiz,1),%esi

00102930 <cpu>:
  lapicw(TPR, 0);
}

int
cpu(void)
{
  102930:	55                   	push   %ebp
  102931:	89 e5                	mov    %esp,%ebp
  102933:	83 ec 08             	sub    $0x8,%esp

static inline uint
read_eflags(void)
{
  uint eflags;
  asm volatile("pushfl; popl %0" : "=r" (eflags));
  102936:	9c                   	pushf  
  102937:	58                   	pop    %eax
  // Cannot call cpu when interrupts are enabled:
  // result not guaranteed to last long enough to be used!
  // Would prefer to panic but even printing is chancy here:
  // everything, including cprintf, calls cpu, at least indirectly
  // through acquire and release.
  if(read_eflags()&FL_IF){
  102938:	f6 c4 02             	test   $0x2,%ah
  10293b:	74 12                	je     10294f <cpu+0x1f>
    static int n;
    if(n++ == 0)
  10293d:	8b 15 40 81 10 00    	mov    0x108140,%edx
  102943:	8d 42 01             	lea    0x1(%edx),%eax
  102946:	85 d2                	test   %edx,%edx
  102948:	a3 40 81 10 00       	mov    %eax,0x108140
  10294d:	74 19                	je     102968 <cpu+0x38>
      cprintf("cpu called from %x with interrupts enabled\n",
        ((uint*)read_ebp())[1]);
  }

  if(lapic)
  10294f:	8b 15 98 b3 10 00    	mov    0x10b398,%edx
  102955:	31 c0                	xor    %eax,%eax
  102957:	85 d2                	test   %edx,%edx
  102959:	74 06                	je     102961 <cpu+0x31>
    return lapic[ID]>>24;
  10295b:	8b 42 20             	mov    0x20(%edx),%eax
  10295e:	c1 e8 18             	shr    $0x18,%eax
  return 0;
}
  102961:	c9                   	leave  
  102962:	c3                   	ret    
  102963:	90                   	nop    
  102964:	8d 74 26 00          	lea    0x0(%esi,%eiz,1),%esi
static inline uint
read_ebp(void)
{
  uint ebp;
  
  asm volatile("movl %%ebp, %0" : "=a" (ebp));
  102968:	89 e8                	mov    %ebp,%eax
  // everything, including cprintf, calls cpu, at least indirectly
  // through acquire and release.
  if(read_eflags()&FL_IF){
    static int n;
    if(n++ == 0)
      cprintf("cpu called from %x with interrupts enabled\n",
  10296a:	8b 40 04             	mov    0x4(%eax),%eax
  10296d:	c7 04 24 d0 65 10 00 	movl   $0x1065d0,(%esp)
  102974:	89 44 24 04          	mov    %eax,0x4(%esp)
